ARM GAS  C:\Users\manuelfu\AppData\Local\Temp\ccnaxu55.s 			page 1


   1              		.syntax unified
   2              		.cpu cortex-m3
   3              		.fpu softvfp
   4              		.eabi_attribute 20, 1
   5              		.eabi_attribute 21, 1
   6              		.eabi_attribute 23, 3
   7              		.eabi_attribute 24, 1
   8              		.eabi_attribute 25, 1
   9              		.eabi_attribute 26, 1
  10              		.eabi_attribute 30, 1
  11              		.eabi_attribute 34, 1
  12              		.eabi_attribute 18, 4
  13              		.thumb
  14              		.syntax unified
  15              		.file	"Accel.c"
  16              		.text
  17              	.Ltext0:
  18              		.cfi_sections	.debug_frame
  19              		.global	__aeabi_ui2d
  20              		.section	.text.value_convert_accel,"ax",%progbits
  21              		.align	2
  22              		.global	value_convert_accel
  23              		.thumb
  24              		.thumb_func
  25              		.type	value_convert_accel, %function
  26              	value_convert_accel:
  27              	.LFB64:
  28              		.file 1 "ZumoLibrary\\Accel.c"
   1:ZumoLibrary/Accel.c **** /**
   2:ZumoLibrary/Accel.c ****  * @file    Accel.c
   3:ZumoLibrary/Accel.c ****  * @brief   Basic methods for operating accelerometer. For more details, please refer to Accel_magn
   4:ZumoLibrary/Accel.c ****  * @details part number: LSM303D (simultaneously used with magnetometer and included in Zumo shield
   5:ZumoLibrary/Accel.c **** */
   6:ZumoLibrary/Accel.c **** #include "Accel_magnet.h"
   7:ZumoLibrary/Accel.c **** 
   8:ZumoLibrary/Accel.c **** /**
   9:ZumoLibrary/Accel.c **** * @brief    Converting raw value
  10:ZumoLibrary/Accel.c **** * @details  Converting raw value
  11:ZumoLibrary/Accel.c **** * @param    uint16 X_AXIS : X axis value
  12:ZumoLibrary/Accel.c **** * @param    uint16 Y_AXIS : Y axis value
  13:ZumoLibrary/Accel.c **** * @param    uint16 Z_AXIS : Z axis value
  14:ZumoLibrary/Accel.c **** */
  15:ZumoLibrary/Accel.c **** void value_convert_accel(uint16 X_AXIS, uint16 Y_AXIS, uint16 Z_AXIS)
  16:ZumoLibrary/Accel.c **** {
  29              		.loc 1 16 0
  30              		.cfi_startproc
  31              		@ args = 0, pretend = 0, frame = 0
  32              		@ frame_needed = 0, uses_anonymous_args = 0
  33              	.LVL0:
  34 0000 F8B5     		push	{r3, r4, r5, r6, r7, lr}
  35              		.cfi_def_cfa_offset 24
  36              		.cfi_offset 3, -24
  37              		.cfi_offset 4, -20
  38              		.cfi_offset 5, -16
  39              		.cfi_offset 6, -12
  40              		.cfi_offset 7, -8
  41              		.cfi_offset 14, -4
ARM GAS  C:\Users\manuelfu\AppData\Local\Temp\ccnaxu55.s 			page 2


  42 0002 0646     		mov	r6, r0
  43 0004 0F46     		mov	r7, r1
  17:ZumoLibrary/Accel.c ****     double AccXangle, AccYangle;
  18:ZumoLibrary/Accel.c ****    
  19:ZumoLibrary/Accel.c ****     AccXangle = (float) (atan2(Y_AXIS, Z_AXIS)+M_PI) *180 / M_PI;
  44              		.loc 1 19 0
  45 0006 1046     		mov	r0, r2
  46              	.LVL1:
  47 0008 FFF7FEFF 		bl	__aeabi_ui2d
  48              	.LVL2:
  49 000c 0446     		mov	r4, r0
  50 000e 0D46     		mov	r5, r1
  51 0010 3846     		mov	r0, r7
  52 0012 FFF7FEFF 		bl	__aeabi_ui2d
  53              	.LVL3:
  54 0016 2246     		mov	r2, r4
  55 0018 2B46     		mov	r3, r5
  56 001a FFF7FEFF 		bl	atan2
  57              	.LVL4:
  20:ZumoLibrary/Accel.c ****     AccYangle = (float) (atan2(Z_AXIS, X_AXIS)+M_PI) *180 / M_PI;
  58              		.loc 1 20 0
  59 001e 3046     		mov	r0, r6
  60 0020 FFF7FEFF 		bl	__aeabi_ui2d
  61              	.LVL5:
  62 0024 0246     		mov	r2, r0
  63 0026 0B46     		mov	r3, r1
  64 0028 2046     		mov	r0, r4
  65 002a 2946     		mov	r1, r5
  66 002c FFF7FEFF 		bl	atan2
  67              	.LVL6:
  68 0030 F8BD     		pop	{r3, r4, r5, r6, r7, pc}
  69              		.cfi_endproc
  70              	.LFE64:
  71              		.size	value_convert_accel, .-value_convert_accel
  72 0032 00BF     		.text
  73              	.Letext0:
  74              		.file 2 "c:\\program files (x86)\\cypress\\psoc creator\\4.2\\psoc creator\\import\\gnu\\arm\\5.4.
  75              		.file 3 "c:\\program files (x86)\\cypress\\psoc creator\\4.2\\psoc creator\\import\\gnu\\arm\\5.4.
  76              		.file 4 "Generated_Source\\PSoC5/cytypes.h"
  77              		.file 5 "Generated_Source\\PSoC5/core_cm3.h"
  78              		.file 6 "c:\\program files (x86)\\cypress\\psoc creator\\4.2\\psoc creator\\import\\gnu\\arm\\5.4.