ARM GAS  C:\Users\manuelfu\AppData\Local\Temp\ccya56jc.s 			page 1


   1              		.syntax unified
   2              		.cpu cortex-m3
   3              		.fpu softvfp
   4              		.eabi_attribute 20, 1
   5              		.eabi_attribute 21, 1
   6              		.eabi_attribute 23, 3
   7              		.eabi_attribute 24, 1
   8              		.eabi_attribute 25, 1
   9              		.eabi_attribute 26, 1
  10              		.eabi_attribute 30, 1
  11              		.eabi_attribute 34, 1
  12              		.eabi_attribute 18, 4
  13              		.thumb
  14              		.syntax unified
  15              		.file	"cyfitter_cfg.c"
  16              		.text
  17              	.Ltext0:
  18              		.cfi_sections	.debug_frame
  19              		.section	.text.CyClockStartupError,"ax",%progbits
  20              		.align	2
  21              		.thumb
  22              		.thumb_func
  23              		.type	CyClockStartupError, %function
  24              	CyClockStartupError:
  25              	.LFB3:
  26              		.file 1 "Generated_Source\\PSoC5\\cyfitter_cfg.c"
   1:Generated_Source\PSoC5/cyfitter_cfg.c **** 
   2:Generated_Source\PSoC5/cyfitter_cfg.c **** /*******************************************************************************
   3:Generated_Source\PSoC5/cyfitter_cfg.c **** * File Name: cyfitter_cfg.c
   4:Generated_Source\PSoC5/cyfitter_cfg.c **** * 
   5:Generated_Source\PSoC5/cyfitter_cfg.c **** * PSoC Creator  4.2
   6:Generated_Source\PSoC5/cyfitter_cfg.c **** *
   7:Generated_Source\PSoC5/cyfitter_cfg.c **** * Description:
   8:Generated_Source\PSoC5/cyfitter_cfg.c **** * This file contains device initialization code.
   9:Generated_Source\PSoC5/cyfitter_cfg.c **** * Except for the user defined sections in CyClockStartupError(), this file should not be modified.
  10:Generated_Source\PSoC5/cyfitter_cfg.c **** * This file is automatically generated by PSoC Creator.
  11:Generated_Source\PSoC5/cyfitter_cfg.c **** *
  12:Generated_Source\PSoC5/cyfitter_cfg.c **** ********************************************************************************
  13:Generated_Source\PSoC5/cyfitter_cfg.c **** * Copyright (c) 2007-2018 Cypress Semiconductor.  All rights reserved.
  14:Generated_Source\PSoC5/cyfitter_cfg.c **** * You may use this file only in accordance with the license, terms, conditions, 
  15:Generated_Source\PSoC5/cyfitter_cfg.c **** * disclaimers, and limitations in the end user license agreement accompanying 
  16:Generated_Source\PSoC5/cyfitter_cfg.c **** * the software package with which this file was provided.
  17:Generated_Source\PSoC5/cyfitter_cfg.c **** ********************************************************************************/
  18:Generated_Source\PSoC5/cyfitter_cfg.c **** 
  19:Generated_Source\PSoC5/cyfitter_cfg.c **** #include <string.h>
  20:Generated_Source\PSoC5/cyfitter_cfg.c **** #include "cytypes.h"
  21:Generated_Source\PSoC5/cyfitter_cfg.c **** #include "cydevice_trm.h"
  22:Generated_Source\PSoC5/cyfitter_cfg.c **** #include "cyfitter.h"
  23:Generated_Source\PSoC5/cyfitter_cfg.c **** #include "CyLib.h"
  24:Generated_Source\PSoC5/cyfitter_cfg.c **** #include "cyfitter_cfg.h"
  25:Generated_Source\PSoC5/cyfitter_cfg.c **** #include "cyapicallbacks.h"
  26:Generated_Source\PSoC5/cyfitter_cfg.c **** 
  27:Generated_Source\PSoC5/cyfitter_cfg.c **** #define CY_NEED_CYCLOCKSTARTUPERROR 1
  28:Generated_Source\PSoC5/cyfitter_cfg.c **** 
  29:Generated_Source\PSoC5/cyfitter_cfg.c **** 
  30:Generated_Source\PSoC5/cyfitter_cfg.c **** #if defined(__GNUC__) || defined(__ARMCC_VERSION)
  31:Generated_Source\PSoC5/cyfitter_cfg.c ****     #define CYPACKED 
ARM GAS  C:\Users\manuelfu\AppData\Local\Temp\ccya56jc.s 			page 2


  32:Generated_Source\PSoC5/cyfitter_cfg.c ****     #define CYPACKED_ATTR __attribute__ ((packed))
  33:Generated_Source\PSoC5/cyfitter_cfg.c ****     #define CYALIGNED __attribute__ ((aligned))
  34:Generated_Source\PSoC5/cyfitter_cfg.c ****     #define CY_CFG_UNUSED __attribute__ ((unused))
  35:Generated_Source\PSoC5/cyfitter_cfg.c ****     #ifndef CY_CFG_SECTION
  36:Generated_Source\PSoC5/cyfitter_cfg.c ****         #define CY_CFG_SECTION __attribute__ ((section(".psocinit")))
  37:Generated_Source\PSoC5/cyfitter_cfg.c ****     #endif
  38:Generated_Source\PSoC5/cyfitter_cfg.c ****     
  39:Generated_Source\PSoC5/cyfitter_cfg.c ****     #if defined(__ARMCC_VERSION)
  40:Generated_Source\PSoC5/cyfitter_cfg.c ****         #define CY_CFG_MEMORY_BARRIER() __memory_changed()
  41:Generated_Source\PSoC5/cyfitter_cfg.c ****     #else
  42:Generated_Source\PSoC5/cyfitter_cfg.c ****         #define CY_CFG_MEMORY_BARRIER() __sync_synchronize()
  43:Generated_Source\PSoC5/cyfitter_cfg.c ****     #endif
  44:Generated_Source\PSoC5/cyfitter_cfg.c ****     
  45:Generated_Source\PSoC5/cyfitter_cfg.c **** #elif defined(__ICCARM__)
  46:Generated_Source\PSoC5/cyfitter_cfg.c ****     #include <intrinsics.h>
  47:Generated_Source\PSoC5/cyfitter_cfg.c **** 
  48:Generated_Source\PSoC5/cyfitter_cfg.c ****     #define CYPACKED __packed
  49:Generated_Source\PSoC5/cyfitter_cfg.c ****     #define CYPACKED_ATTR 
  50:Generated_Source\PSoC5/cyfitter_cfg.c ****     #define CYALIGNED _Pragma("data_alignment=4")
  51:Generated_Source\PSoC5/cyfitter_cfg.c ****     #define CY_CFG_UNUSED _Pragma("diag_suppress=Pe177")
  52:Generated_Source\PSoC5/cyfitter_cfg.c ****     #define CY_CFG_SECTION _Pragma("location=\".psocinit\"")
  53:Generated_Source\PSoC5/cyfitter_cfg.c ****     
  54:Generated_Source\PSoC5/cyfitter_cfg.c ****     #define CY_CFG_MEMORY_BARRIER() __DMB()
  55:Generated_Source\PSoC5/cyfitter_cfg.c ****     
  56:Generated_Source\PSoC5/cyfitter_cfg.c **** #else
  57:Generated_Source\PSoC5/cyfitter_cfg.c ****     #error Unsupported toolchain
  58:Generated_Source\PSoC5/cyfitter_cfg.c **** #endif
  59:Generated_Source\PSoC5/cyfitter_cfg.c **** 
  60:Generated_Source\PSoC5/cyfitter_cfg.c **** #ifndef CYCODE
  61:Generated_Source\PSoC5/cyfitter_cfg.c ****     #define CYCODE
  62:Generated_Source\PSoC5/cyfitter_cfg.c **** #endif
  63:Generated_Source\PSoC5/cyfitter_cfg.c **** #ifndef CYDATA
  64:Generated_Source\PSoC5/cyfitter_cfg.c ****     #define CYDATA
  65:Generated_Source\PSoC5/cyfitter_cfg.c **** #endif
  66:Generated_Source\PSoC5/cyfitter_cfg.c **** #ifndef CYFAR
  67:Generated_Source\PSoC5/cyfitter_cfg.c ****     #define CYFAR
  68:Generated_Source\PSoC5/cyfitter_cfg.c **** #endif
  69:Generated_Source\PSoC5/cyfitter_cfg.c **** #ifndef CYXDATA
  70:Generated_Source\PSoC5/cyfitter_cfg.c ****     #define CYXDATA
  71:Generated_Source\PSoC5/cyfitter_cfg.c **** #endif
  72:Generated_Source\PSoC5/cyfitter_cfg.c **** 
  73:Generated_Source\PSoC5/cyfitter_cfg.c **** 
  74:Generated_Source\PSoC5/cyfitter_cfg.c **** CY_CFG_UNUSED
  75:Generated_Source\PSoC5/cyfitter_cfg.c **** static void CYMEMZERO(void *s, size_t n);
  76:Generated_Source\PSoC5/cyfitter_cfg.c **** CY_CFG_UNUSED
  77:Generated_Source\PSoC5/cyfitter_cfg.c **** static void CYMEMZERO(void *s, size_t n)
  78:Generated_Source\PSoC5/cyfitter_cfg.c **** {
  79:Generated_Source\PSoC5/cyfitter_cfg.c **** 	(void)memset(s, 0, n);
  80:Generated_Source\PSoC5/cyfitter_cfg.c **** }
  81:Generated_Source\PSoC5/cyfitter_cfg.c **** CY_CFG_UNUSED
  82:Generated_Source\PSoC5/cyfitter_cfg.c **** static void CYCONFIGCPY(void *dest, const void *src, size_t n);
  83:Generated_Source\PSoC5/cyfitter_cfg.c **** CY_CFG_UNUSED
  84:Generated_Source\PSoC5/cyfitter_cfg.c **** static void CYCONFIGCPY(void *dest, const void *src, size_t n)
  85:Generated_Source\PSoC5/cyfitter_cfg.c **** {
  86:Generated_Source\PSoC5/cyfitter_cfg.c **** 	(void)memcpy(dest, src, n);
  87:Generated_Source\PSoC5/cyfitter_cfg.c **** }
  88:Generated_Source\PSoC5/cyfitter_cfg.c **** CY_CFG_UNUSED
ARM GAS  C:\Users\manuelfu\AppData\Local\Temp\ccya56jc.s 			page 3


  89:Generated_Source\PSoC5/cyfitter_cfg.c **** static void CYCONFIGCPYCODE(void *dest, const void *src, size_t n);
  90:Generated_Source\PSoC5/cyfitter_cfg.c **** CY_CFG_UNUSED
  91:Generated_Source\PSoC5/cyfitter_cfg.c **** static void CYCONFIGCPYCODE(void *dest, const void *src, size_t n)
  92:Generated_Source\PSoC5/cyfitter_cfg.c **** {
  93:Generated_Source\PSoC5/cyfitter_cfg.c **** 	(void)memcpy(dest, src, n);
  94:Generated_Source\PSoC5/cyfitter_cfg.c **** }
  95:Generated_Source\PSoC5/cyfitter_cfg.c **** 
  96:Generated_Source\PSoC5/cyfitter_cfg.c **** 
  97:Generated_Source\PSoC5/cyfitter_cfg.c **** 
  98:Generated_Source\PSoC5/cyfitter_cfg.c **** 
  99:Generated_Source\PSoC5/cyfitter_cfg.c **** /* Clock startup error codes                                                   */
 100:Generated_Source\PSoC5/cyfitter_cfg.c **** #define CYCLOCKSTART_NO_ERROR    0u
 101:Generated_Source\PSoC5/cyfitter_cfg.c **** #define CYCLOCKSTART_XTAL_ERROR  1u
 102:Generated_Source\PSoC5/cyfitter_cfg.c **** #define CYCLOCKSTART_32KHZ_ERROR 2u
 103:Generated_Source\PSoC5/cyfitter_cfg.c **** #define CYCLOCKSTART_PLL_ERROR   3u
 104:Generated_Source\PSoC5/cyfitter_cfg.c **** #define CYCLOCKSTART_FLL_ERROR   4u
 105:Generated_Source\PSoC5/cyfitter_cfg.c **** #define CYCLOCKSTART_WCO_ERROR   5u
 106:Generated_Source\PSoC5/cyfitter_cfg.c **** 
 107:Generated_Source\PSoC5/cyfitter_cfg.c **** 
 108:Generated_Source\PSoC5/cyfitter_cfg.c **** #ifdef CY_NEED_CYCLOCKSTARTUPERROR
 109:Generated_Source\PSoC5/cyfitter_cfg.c **** /*******************************************************************************
 110:Generated_Source\PSoC5/cyfitter_cfg.c **** * Function Name: CyClockStartupError
 111:Generated_Source\PSoC5/cyfitter_cfg.c **** ********************************************************************************
 112:Generated_Source\PSoC5/cyfitter_cfg.c **** * Summary:
 113:Generated_Source\PSoC5/cyfitter_cfg.c **** *  If an error is encountered during clock configuration (crystal startup error,
 114:Generated_Source\PSoC5/cyfitter_cfg.c **** *  PLL lock error, etc.), the system will end up here.  Unless reimplemented by
 115:Generated_Source\PSoC5/cyfitter_cfg.c **** *  the customer, this function will stop in an infinite loop.
 116:Generated_Source\PSoC5/cyfitter_cfg.c **** *
 117:Generated_Source\PSoC5/cyfitter_cfg.c **** * Parameters:
 118:Generated_Source\PSoC5/cyfitter_cfg.c **** *   void
 119:Generated_Source\PSoC5/cyfitter_cfg.c **** *
 120:Generated_Source\PSoC5/cyfitter_cfg.c **** * Return:
 121:Generated_Source\PSoC5/cyfitter_cfg.c **** *   void
 122:Generated_Source\PSoC5/cyfitter_cfg.c **** *
 123:Generated_Source\PSoC5/cyfitter_cfg.c **** *******************************************************************************/
 124:Generated_Source\PSoC5/cyfitter_cfg.c **** CY_CFG_UNUSED
 125:Generated_Source\PSoC5/cyfitter_cfg.c **** static void CyClockStartupError(uint8 errorCode);
 126:Generated_Source\PSoC5/cyfitter_cfg.c **** CY_CFG_UNUSED
 127:Generated_Source\PSoC5/cyfitter_cfg.c **** static void CyClockStartupError(uint8 errorCode)
 128:Generated_Source\PSoC5/cyfitter_cfg.c **** {
  27              		.loc 1 128 0
  28              		.cfi_startproc
  29              		@ Volatile: function does not return.
  30              		@ args = 0, pretend = 0, frame = 0
  31              		@ frame_needed = 0, uses_anonymous_args = 0
  32              		@ link register save eliminated.
  33              	.LVL0:
  34              	.L2:
  35 0000 FEE7     		b	.L2
  36              		.cfi_endproc
  37              	.LFE3:
  38              		.size	CyClockStartupError, .-CyClockStartupError
  39 0002 00BF     		.section	.text.cfg_write_bytes32,"ax",%progbits
  40              		.align	2
  41              		.thumb
  42              		.thumb_func
  43              		.type	cfg_write_bytes32, %function
ARM GAS  C:\Users\manuelfu\AppData\Local\Temp\ccya56jc.s 			page 4


  44              	cfg_write_bytes32:
  45              	.LFB4:
 129:Generated_Source\PSoC5/cyfitter_cfg.c ****     /* To remove the compiler warning if errorCode not used.                */
 130:Generated_Source\PSoC5/cyfitter_cfg.c ****     errorCode = errorCode;
 131:Generated_Source\PSoC5/cyfitter_cfg.c **** 
 132:Generated_Source\PSoC5/cyfitter_cfg.c ****     /* If we have a clock startup error (bad MHz crystal, PLL lock, etc.),  */
 133:Generated_Source\PSoC5/cyfitter_cfg.c ****     /* we will end up here to allow the customer to implement something to  */
 134:Generated_Source\PSoC5/cyfitter_cfg.c ****     /* deal with the clock condition.                                       */
 135:Generated_Source\PSoC5/cyfitter_cfg.c **** 
 136:Generated_Source\PSoC5/cyfitter_cfg.c **** #ifdef CY_CFG_CLOCK_STARTUP_ERROR_CALLBACK
 137:Generated_Source\PSoC5/cyfitter_cfg.c ****     CY_CFG_Clock_Startup_ErrorCallback();
 138:Generated_Source\PSoC5/cyfitter_cfg.c **** #else
 139:Generated_Source\PSoC5/cyfitter_cfg.c ****     /*  If not using CY_CFG_CLOCK_STARTUP_ERROR_CALLBACK, place your clock startup code here. */
 140:Generated_Source\PSoC5/cyfitter_cfg.c ****     /* `#START CyClockStartupError` */
 141:Generated_Source\PSoC5/cyfitter_cfg.c **** 
 142:Generated_Source\PSoC5/cyfitter_cfg.c **** 
 143:Generated_Source\PSoC5/cyfitter_cfg.c **** 
 144:Generated_Source\PSoC5/cyfitter_cfg.c ****     /* `#END` */
 145:Generated_Source\PSoC5/cyfitter_cfg.c **** 
 146:Generated_Source\PSoC5/cyfitter_cfg.c ****     while(1) {}
 147:Generated_Source\PSoC5/cyfitter_cfg.c **** #endif /* CY_CFG_CLOCK_STARTUP_ERROR_CALLBACK */
 148:Generated_Source\PSoC5/cyfitter_cfg.c **** }
 149:Generated_Source\PSoC5/cyfitter_cfg.c **** #endif
 150:Generated_Source\PSoC5/cyfitter_cfg.c **** 
 151:Generated_Source\PSoC5/cyfitter_cfg.c **** #define CY_CFG_BASE_ADDR_COUNT 40u
 152:Generated_Source\PSoC5/cyfitter_cfg.c **** CYPACKED typedef struct
 153:Generated_Source\PSoC5/cyfitter_cfg.c **** {
 154:Generated_Source\PSoC5/cyfitter_cfg.c **** 	uint8 offset;
 155:Generated_Source\PSoC5/cyfitter_cfg.c **** 	uint8 value;
 156:Generated_Source\PSoC5/cyfitter_cfg.c **** } CYPACKED_ATTR cy_cfg_addrvalue_t;
 157:Generated_Source\PSoC5/cyfitter_cfg.c **** 
 158:Generated_Source\PSoC5/cyfitter_cfg.c **** #define cy_cfg_addr_table ((const uint32 CYFAR *)0x48000000u)
 159:Generated_Source\PSoC5/cyfitter_cfg.c **** #define cy_cfg_data_table ((const cy_cfg_addrvalue_t CYFAR *)0x480000A0u)
 160:Generated_Source\PSoC5/cyfitter_cfg.c **** 
 161:Generated_Source\PSoC5/cyfitter_cfg.c **** /* IOPORT_7 Address: CYDEV_PRTDSI_PRT12_BASE Size (bytes): 6 */
 162:Generated_Source\PSoC5/cyfitter_cfg.c **** #define BS_IOPORT_7_VAL ((const uint8 CYFAR *)0x48000C68u)
 163:Generated_Source\PSoC5/cyfitter_cfg.c **** 
 164:Generated_Source\PSoC5/cyfitter_cfg.c **** /* IOPINS0_0 Address: CYREG_PRT0_DM0 Size (bytes): 8 */
 165:Generated_Source\PSoC5/cyfitter_cfg.c **** #define BS_IOPINS0_0_VAL ((const uint8 CYFAR *)0x48000C70u)
 166:Generated_Source\PSoC5/cyfitter_cfg.c **** 
 167:Generated_Source\PSoC5/cyfitter_cfg.c **** /* IOPINS0_7 Address: CYREG_PRT12_DR Size (bytes): 10 */
 168:Generated_Source\PSoC5/cyfitter_cfg.c **** #define BS_IOPINS0_7_VAL ((const uint8 CYFAR *)0x48000C78u)
 169:Generated_Source\PSoC5/cyfitter_cfg.c **** 
 170:Generated_Source\PSoC5/cyfitter_cfg.c **** /* IOPINS0_8 Address: CYREG_PRT15_DM0 Size (bytes): 8 */
 171:Generated_Source\PSoC5/cyfitter_cfg.c **** #define BS_IOPINS0_8_VAL ((const uint8 CYFAR *)0x48000C84u)
 172:Generated_Source\PSoC5/cyfitter_cfg.c **** 
 173:Generated_Source\PSoC5/cyfitter_cfg.c **** /* IOPINS0_1 Address: CYREG_PRT1_DM0 Size (bytes): 8 */
 174:Generated_Source\PSoC5/cyfitter_cfg.c **** #define BS_IOPINS0_1_VAL ((const uint8 CYFAR *)0x48000C8Cu)
 175:Generated_Source\PSoC5/cyfitter_cfg.c **** 
 176:Generated_Source\PSoC5/cyfitter_cfg.c **** /* IOPINS0_2 Address: CYREG_PRT2_DR Size (bytes): 10 */
 177:Generated_Source\PSoC5/cyfitter_cfg.c **** #define BS_IOPINS0_2_VAL ((const uint8 CYFAR *)0x48000C94u)
 178:Generated_Source\PSoC5/cyfitter_cfg.c **** 
 179:Generated_Source\PSoC5/cyfitter_cfg.c **** /* IOPINS0_3 Address: CYREG_PRT3_DM0 Size (bytes): 8 */
 180:Generated_Source\PSoC5/cyfitter_cfg.c **** #define BS_IOPINS0_3_VAL ((const uint8 CYFAR *)0x48000CA0u)
 181:Generated_Source\PSoC5/cyfitter_cfg.c **** 
 182:Generated_Source\PSoC5/cyfitter_cfg.c **** /* CYDEV_CLKDIST_ACFG0_CFG0 Address: CYREG_CLKDIST_ACFG0_CFG0 Size (bytes): 4 */
 183:Generated_Source\PSoC5/cyfitter_cfg.c **** #define BS_CYDEV_CLKDIST_ACFG0_CFG0_VAL ((const uint8 CYFAR *)0x48000CA8u)
ARM GAS  C:\Users\manuelfu\AppData\Local\Temp\ccya56jc.s 			page 5


 184:Generated_Source\PSoC5/cyfitter_cfg.c **** 
 185:Generated_Source\PSoC5/cyfitter_cfg.c **** 
 186:Generated_Source\PSoC5/cyfitter_cfg.c **** /*******************************************************************************
 187:Generated_Source\PSoC5/cyfitter_cfg.c **** * Function Name: cfg_write_bytes32
 188:Generated_Source\PSoC5/cyfitter_cfg.c **** ********************************************************************************
 189:Generated_Source\PSoC5/cyfitter_cfg.c **** * Summary:
 190:Generated_Source\PSoC5/cyfitter_cfg.c **** *  This function is used for setting up the chip configuration areas that
 191:Generated_Source\PSoC5/cyfitter_cfg.c **** *  contain relatively sparse data.
 192:Generated_Source\PSoC5/cyfitter_cfg.c **** *
 193:Generated_Source\PSoC5/cyfitter_cfg.c **** * Parameters:
 194:Generated_Source\PSoC5/cyfitter_cfg.c **** *   void
 195:Generated_Source\PSoC5/cyfitter_cfg.c **** *
 196:Generated_Source\PSoC5/cyfitter_cfg.c **** * Return:
 197:Generated_Source\PSoC5/cyfitter_cfg.c **** *   void
 198:Generated_Source\PSoC5/cyfitter_cfg.c **** *
 199:Generated_Source\PSoC5/cyfitter_cfg.c **** *******************************************************************************/
 200:Generated_Source\PSoC5/cyfitter_cfg.c **** static void cfg_write_bytes32(const uint32 addr_table[], const cy_cfg_addrvalue_t data_table[]);
 201:Generated_Source\PSoC5/cyfitter_cfg.c **** static void cfg_write_bytes32(const uint32 addr_table[], const cy_cfg_addrvalue_t data_table[])
 202:Generated_Source\PSoC5/cyfitter_cfg.c **** {
  46              		.loc 1 202 0
  47              		.cfi_startproc
  48              		@ args = 0, pretend = 0, frame = 0
  49              		@ frame_needed = 0, uses_anonymous_args = 0
  50              		@ link register save eliminated.
  51              	.LVL1:
  52              		.loc 1 202 0
  53 0000 F0B4     		push	{r4, r5, r6, r7}
  54              		.cfi_def_cfa_offset 16
  55              		.cfi_offset 4, -16
  56              		.cfi_offset 5, -12
  57              		.cfi_offset 6, -8
  58              		.cfi_offset 7, -4
  59              	.LVL2:
 203:Generated_Source\PSoC5/cyfitter_cfg.c **** 	/* For 32-bit little-endian architectures */
 204:Generated_Source\PSoC5/cyfitter_cfg.c **** 	uint32 i, j = 0u;
  60              		.loc 1 204 0
  61 0002 0022     		movs	r2, #0
 205:Generated_Source\PSoC5/cyfitter_cfg.c **** 	for (i = 0u; i < CY_CFG_BASE_ADDR_COUNT; i++)
  62              		.loc 1 205 0
  63 0004 1746     		mov	r7, r2
  64 0006 11E0     		b	.L4
  65              	.LVL3:
  66              	.L7:
  67              	.LBB2:
 206:Generated_Source\PSoC5/cyfitter_cfg.c **** 	{
 207:Generated_Source\PSoC5/cyfitter_cfg.c **** 		uint32 baseAddr = addr_table[i];
  68              		.loc 1 207 0
  69 0008 50F82760 		ldr	r6, [r0, r7, lsl #2]
  70              	.LVL4:
 208:Generated_Source\PSoC5/cyfitter_cfg.c **** 		uint8 count = (uint8)baseAddr;
  71              		.loc 1 208 0
  72 000c F3B2     		uxtb	r3, r6
  73              	.LVL5:
 209:Generated_Source\PSoC5/cyfitter_cfg.c **** 		baseAddr &= 0xFFFFFF00u;
  74              		.loc 1 209 0
  75 000e 26F0FF06 		bic	r6, r6, #255
  76              	.LVL6:
ARM GAS  C:\Users\manuelfu\AppData\Local\Temp\ccya56jc.s 			page 6


 210:Generated_Source\PSoC5/cyfitter_cfg.c **** 		while (count != 0u)
  77              		.loc 1 210 0
  78 0012 08E0     		b	.L5
  79              	.L6:
 211:Generated_Source\PSoC5/cyfitter_cfg.c **** 		{
 212:Generated_Source\PSoC5/cyfitter_cfg.c **** 			CY_SET_REG8((void *)(baseAddr + data_table[j].offset), data_table[j].value);
  80              		.loc 1 212 0
  81 0014 01EB4205 		add	r5, r1, r2, lsl #1
  82 0018 11F81240 		ldrb	r4, [r1, r2, lsl #1]	@ zero_extendqisi2
  83 001c 6D78     		ldrb	r5, [r5, #1]	@ zero_extendqisi2
  84 001e A555     		strb	r5, [r4, r6]
 213:Generated_Source\PSoC5/cyfitter_cfg.c **** 			j++;
  85              		.loc 1 213 0
  86 0020 0132     		adds	r2, r2, #1
  87              	.LVL7:
 214:Generated_Source\PSoC5/cyfitter_cfg.c **** 			count--;
  88              		.loc 1 214 0
  89 0022 013B     		subs	r3, r3, #1
  90              	.LVL8:
  91 0024 DBB2     		uxtb	r3, r3
  92              	.LVL9:
  93              	.L5:
 210:Generated_Source\PSoC5/cyfitter_cfg.c **** 		{
  94              		.loc 1 210 0
  95 0026 002B     		cmp	r3, #0
  96 0028 F4D1     		bne	.L6
  97              	.LBE2:
 205:Generated_Source\PSoC5/cyfitter_cfg.c **** 	{
  98              		.loc 1 205 0 discriminator 2
  99 002a 0137     		adds	r7, r7, #1
 100              	.LVL10:
 101              	.L4:
 205:Generated_Source\PSoC5/cyfitter_cfg.c **** 	{
 102              		.loc 1 205 0 is_stmt 0 discriminator 1
 103 002c 272F     		cmp	r7, #39
 104 002e EBD9     		bls	.L7
 215:Generated_Source\PSoC5/cyfitter_cfg.c **** 		}
 216:Generated_Source\PSoC5/cyfitter_cfg.c **** 	}
 217:Generated_Source\PSoC5/cyfitter_cfg.c **** }
 105              		.loc 1 217 0 is_stmt 1
 106 0030 F0BC     		pop	{r4, r5, r6, r7}
 107              		.cfi_restore 7
 108              		.cfi_restore 6
 109              		.cfi_restore 5
 110              		.cfi_restore 4
 111              		.cfi_def_cfa_offset 0
 112              	.LVL11:
 113 0032 7047     		bx	lr
 114              		.cfi_endproc
 115              	.LFE4:
 116              		.size	cfg_write_bytes32, .-cfg_write_bytes32
 117              		.section	.text.CYMEMZERO,"ax",%progbits
 118              		.align	2
 119              		.thumb
 120              		.thumb_func
 121              		.type	CYMEMZERO, %function
 122              	CYMEMZERO:
ARM GAS  C:\Users\manuelfu\AppData\Local\Temp\ccya56jc.s 			page 7


 123              	.LFB0:
  78:Generated_Source\PSoC5/cyfitter_cfg.c **** 	(void)memset(s, 0, n);
 124              		.loc 1 78 0
 125              		.cfi_startproc
 126              		@ args = 0, pretend = 0, frame = 0
 127              		@ frame_needed = 0, uses_anonymous_args = 0
 128              	.LVL12:
 129 0000 08B5     		push	{r3, lr}
 130              		.cfi_def_cfa_offset 8
 131              		.cfi_offset 3, -8
 132              		.cfi_offset 14, -4
  79:Generated_Source\PSoC5/cyfitter_cfg.c **** }
 133              		.loc 1 79 0
 134 0002 0A46     		mov	r2, r1
 135 0004 0021     		movs	r1, #0
 136              	.LVL13:
 137 0006 FFF7FEFF 		bl	memset
 138              	.LVL14:
 139 000a 08BD     		pop	{r3, pc}
 140              		.cfi_endproc
 141              	.LFE0:
 142              		.size	CYMEMZERO, .-CYMEMZERO
 143              		.section	.text.AnalogSetDefault,"ax",%progbits
 144              		.align	2
 145              		.thumb
 146              		.thumb_func
 147              		.type	AnalogSetDefault, %function
 148              	AnalogSetDefault:
 149              	.LFB6:
 218:Generated_Source\PSoC5/cyfitter_cfg.c **** 
 219:Generated_Source\PSoC5/cyfitter_cfg.c **** /*******************************************************************************
 220:Generated_Source\PSoC5/cyfitter_cfg.c **** * Function Name: ClockSetup
 221:Generated_Source\PSoC5/cyfitter_cfg.c **** ********************************************************************************
 222:Generated_Source\PSoC5/cyfitter_cfg.c **** *
 223:Generated_Source\PSoC5/cyfitter_cfg.c **** * Summary:
 224:Generated_Source\PSoC5/cyfitter_cfg.c **** *  Performs the initialization of all of the clocks in the device based on the
 225:Generated_Source\PSoC5/cyfitter_cfg.c **** *  settings in the Clock tab of the DWR.  This includes enabling the requested
 226:Generated_Source\PSoC5/cyfitter_cfg.c **** *  clocks and setting the necessary dividers to produce the desired frequency. 
 227:Generated_Source\PSoC5/cyfitter_cfg.c **** *
 228:Generated_Source\PSoC5/cyfitter_cfg.c **** * Parameters:
 229:Generated_Source\PSoC5/cyfitter_cfg.c **** *  void
 230:Generated_Source\PSoC5/cyfitter_cfg.c **** *
 231:Generated_Source\PSoC5/cyfitter_cfg.c **** * Return:
 232:Generated_Source\PSoC5/cyfitter_cfg.c **** *  void
 233:Generated_Source\PSoC5/cyfitter_cfg.c **** *
 234:Generated_Source\PSoC5/cyfitter_cfg.c **** *******************************************************************************/
 235:Generated_Source\PSoC5/cyfitter_cfg.c **** static void ClockSetup(void);
 236:Generated_Source\PSoC5/cyfitter_cfg.c **** static void ClockSetup(void)
 237:Generated_Source\PSoC5/cyfitter_cfg.c **** {
 238:Generated_Source\PSoC5/cyfitter_cfg.c **** 	uint8 x32TrHold;
 239:Generated_Source\PSoC5/cyfitter_cfg.c **** 	uint32 timeout;
 240:Generated_Source\PSoC5/cyfitter_cfg.c **** 	uint8 pllLock;
 241:Generated_Source\PSoC5/cyfitter_cfg.c **** 
 242:Generated_Source\PSoC5/cyfitter_cfg.c **** 	x32TrHold = CY_GET_XTND_REG8((void CYFAR *)CYREG_X32_TR);
 243:Generated_Source\PSoC5/cyfitter_cfg.c **** 
 244:Generated_Source\PSoC5/cyfitter_cfg.c **** 	/* Configure Digital Clocks based on settings from Clock DWR */
 245:Generated_Source\PSoC5/cyfitter_cfg.c **** 	CY_SET_XTND_REG16((void CYFAR *)(CYREG_CLKDIST_DCFG0_CFG0), 0x0017u);
ARM GAS  C:\Users\manuelfu\AppData\Local\Temp\ccya56jc.s 			page 8


 246:Generated_Source\PSoC5/cyfitter_cfg.c **** 	CY_SET_XTND_REG8((void CYFAR *)(CYREG_CLKDIST_DCFG0_CFG0 + 0x2u), 0x18u);
 247:Generated_Source\PSoC5/cyfitter_cfg.c **** 	CY_SET_XTND_REG16((void CYFAR *)(CYREG_CLKDIST_DCFG1_CFG0), 0x0017u);
 248:Generated_Source\PSoC5/cyfitter_cfg.c **** 	CY_SET_XTND_REG8((void CYFAR *)(CYREG_CLKDIST_DCFG1_CFG0 + 0x2u), 0x18u);
 249:Generated_Source\PSoC5/cyfitter_cfg.c **** 	CY_SET_XTND_REG16((void CYFAR *)(CYREG_CLKDIST_DCFG2_CFG0), 0x0019u);
 250:Generated_Source\PSoC5/cyfitter_cfg.c **** 	CY_SET_XTND_REG8((void CYFAR *)(CYREG_CLKDIST_DCFG2_CFG0 + 0x2u), 0x18u);
 251:Generated_Source\PSoC5/cyfitter_cfg.c **** 	CY_SET_XTND_REG16((void CYFAR *)(CYREG_CLKDIST_DCFG3_CFG0), 0x0077u);
 252:Generated_Source\PSoC5/cyfitter_cfg.c **** 	CY_SET_XTND_REG8((void CYFAR *)(CYREG_CLKDIST_DCFG3_CFG0 + 0x2u), 0x18u);
 253:Generated_Source\PSoC5/cyfitter_cfg.c **** 	CY_SET_XTND_REG16((void CYFAR *)(CYREG_CLKDIST_DCFG4_CFG0), 0x00EFu);
 254:Generated_Source\PSoC5/cyfitter_cfg.c **** 	CY_SET_XTND_REG8((void CYFAR *)(CYREG_CLKDIST_DCFG4_CFG0 + 0x2u), 0x18u);
 255:Generated_Source\PSoC5/cyfitter_cfg.c **** 
 256:Generated_Source\PSoC5/cyfitter_cfg.c **** 	/* Configure Analog Clocks based on settings from Clock DWR */
 257:Generated_Source\PSoC5/cyfitter_cfg.c **** 	CYCONFIGCPY((void CYFAR *)(CYREG_CLKDIST_ACFG0_CFG0), (const void CYFAR *)(BS_CYDEV_CLKDIST_ACFG0_
 258:Generated_Source\PSoC5/cyfitter_cfg.c **** 
 259:Generated_Source\PSoC5/cyfitter_cfg.c **** 	/* Configure ILO based on settings from Clock DWR */
 260:Generated_Source\PSoC5/cyfitter_cfg.c **** 	CY_SET_XTND_REG8((void CYFAR *)(CYREG_SLOWCLK_ILO_CR0), 0x02u);
 261:Generated_Source\PSoC5/cyfitter_cfg.c **** 	CY_SET_XTND_REG8((void CYFAR *)(CYREG_CLKDIST_CR), 0x08u);
 262:Generated_Source\PSoC5/cyfitter_cfg.c **** 
 263:Generated_Source\PSoC5/cyfitter_cfg.c **** 	/* Configure XTAL 32kHz based on settings from Clock DWR */
 264:Generated_Source\PSoC5/cyfitter_cfg.c **** 	CY_SET_XTND_REG8((void CYFAR *)(CYREG_SLOWCLK_X32_TST), 0xF3u);
 265:Generated_Source\PSoC5/cyfitter_cfg.c **** 	CY_SET_XTND_REG8((void CYFAR *)(CYREG_X32_TR), 0x03u);
 266:Generated_Source\PSoC5/cyfitter_cfg.c **** 	CY_SET_XTND_REG8((void CYFAR *)(CYREG_SLOWCLK_X32_CFG), 0x84u);
 267:Generated_Source\PSoC5/cyfitter_cfg.c **** 	CY_SET_XTND_REG8((void CYFAR *)(CYREG_SLOWCLK_X32_CR), 0x05u);
 268:Generated_Source\PSoC5/cyfitter_cfg.c **** 	/* Wait up to 1000000us for the XTAL 32kHz to lock */
 269:Generated_Source\PSoC5/cyfitter_cfg.c **** 	for (timeout = 1000000u / 10u; (timeout > 0u) && ((CY_GET_XTND_REG8((void CYFAR *)CYREG_SLOWCLK_X3
 270:Generated_Source\PSoC5/cyfitter_cfg.c **** 	{ 
 271:Generated_Source\PSoC5/cyfitter_cfg.c **** 		
 272:Generated_Source\PSoC5/cyfitter_cfg.c **** 		CyDelayCycles(10u * 48u); /* Delay 10us based on 48MHz clock */
 273:Generated_Source\PSoC5/cyfitter_cfg.c **** 	}
 274:Generated_Source\PSoC5/cyfitter_cfg.c **** 	CY_SET_XTND_REG8((void CYFAR *)(CYREG_X32_TR), (x32TrHold));
 275:Generated_Source\PSoC5/cyfitter_cfg.c **** 
 276:Generated_Source\PSoC5/cyfitter_cfg.c **** 	/* Configure IMO based on settings from Clock DWR */
 277:Generated_Source\PSoC5/cyfitter_cfg.c **** 	CY_SET_XTND_REG8((void CYFAR *)(CYREG_FASTCLK_IMO_CR), 0x03u);
 278:Generated_Source\PSoC5/cyfitter_cfg.c **** 	CY_SET_XTND_REG8((void CYFAR *)(CYREG_IMO_TR1), (CY_GET_XTND_REG8((void CYFAR *)CYREG_FLSHID_CUST_
 279:Generated_Source\PSoC5/cyfitter_cfg.c **** 
 280:Generated_Source\PSoC5/cyfitter_cfg.c **** 	/* Configure PLL based on settings from Clock DWR */
 281:Generated_Source\PSoC5/cyfitter_cfg.c **** 	CY_SET_XTND_REG16((void CYFAR *)(CYREG_FASTCLK_PLL_P), 0x0008u);
 282:Generated_Source\PSoC5/cyfitter_cfg.c **** 	CY_SET_XTND_REG16((void CYFAR *)(CYREG_FASTCLK_PLL_CFG0), 0x1251u);
 283:Generated_Source\PSoC5/cyfitter_cfg.c **** 	/* Wait up to 250us for the PLL to lock */
 284:Generated_Source\PSoC5/cyfitter_cfg.c **** 	pllLock = 0u;
 285:Generated_Source\PSoC5/cyfitter_cfg.c **** 	for (timeout = 250u / 10u; (timeout > 0u) && (pllLock != 0x03u); timeout--)
 286:Generated_Source\PSoC5/cyfitter_cfg.c **** 	{ 
 287:Generated_Source\PSoC5/cyfitter_cfg.c **** 		pllLock = 0x03u & ((uint8)((uint8)pllLock << 1) | ((CY_GET_XTND_REG8((void CYFAR *)CYREG_FASTCLK_
 288:Generated_Source\PSoC5/cyfitter_cfg.c **** 		CyDelayCycles(10u * 48u); /* Delay 10us based on 48MHz clock */
 289:Generated_Source\PSoC5/cyfitter_cfg.c **** 	}
 290:Generated_Source\PSoC5/cyfitter_cfg.c **** 	/* If we ran out of time the PLL didn't lock so go to the error function */
 291:Generated_Source\PSoC5/cyfitter_cfg.c **** 	if (timeout == 0u)
 292:Generated_Source\PSoC5/cyfitter_cfg.c **** 	{
 293:Generated_Source\PSoC5/cyfitter_cfg.c **** 		CyClockStartupError(CYCLOCKSTART_PLL_ERROR);
 294:Generated_Source\PSoC5/cyfitter_cfg.c **** 	}
 295:Generated_Source\PSoC5/cyfitter_cfg.c **** 
 296:Generated_Source\PSoC5/cyfitter_cfg.c **** 	/* Configure Bus/Master Clock based on settings from Clock DWR */
 297:Generated_Source\PSoC5/cyfitter_cfg.c **** 	CY_SET_XTND_REG16((void CYFAR *)(CYREG_CLKDIST_MSTR0), 0x0100u);
 298:Generated_Source\PSoC5/cyfitter_cfg.c **** 	CY_SET_XTND_REG8((void CYFAR *)(CYREG_CLKDIST_MSTR0), 0x07u);
 299:Generated_Source\PSoC5/cyfitter_cfg.c **** 	CY_SET_XTND_REG8((void CYFAR *)(CYREG_CLKDIST_BCFG0), 0x00u);
 300:Generated_Source\PSoC5/cyfitter_cfg.c **** 	CY_SET_XTND_REG8((void CYFAR *)(CYREG_CLKDIST_BCFG2), 0x48u);
 301:Generated_Source\PSoC5/cyfitter_cfg.c **** 	CY_SET_XTND_REG8((void CYFAR *)(CYREG_CLKDIST_MSTR0), 0x00u);
 302:Generated_Source\PSoC5/cyfitter_cfg.c **** 	CY_SET_XTND_REG8((void CYFAR *)(CYREG_CLKDIST_LD), 0x02u);
ARM GAS  C:\Users\manuelfu\AppData\Local\Temp\ccya56jc.s 			page 9


 303:Generated_Source\PSoC5/cyfitter_cfg.c **** 	CY_SET_XTND_REG8((void CYFAR *)(CYREG_CLKDIST_DLY1), 0x04u);
 304:Generated_Source\PSoC5/cyfitter_cfg.c **** 
 305:Generated_Source\PSoC5/cyfitter_cfg.c **** 	CY_SET_XTND_REG8((void CYFAR *)(CYREG_PM_ACT_CFG2), ((CY_GET_XTND_REG8((void CYFAR *)CYREG_PM_ACT_
 306:Generated_Source\PSoC5/cyfitter_cfg.c **** 	CY_SET_XTND_REG8((void CYFAR *)(CYREG_PM_ACT_CFG1), ((CY_GET_XTND_REG8((void CYFAR *)CYREG_PM_ACT_
 307:Generated_Source\PSoC5/cyfitter_cfg.c **** 	CY_SET_XTND_REG8((void CYFAR *)(CYREG_PM_ACT_CFG0), ((CY_GET_XTND_REG8((void CYFAR *)CYREG_PM_ACT_
 308:Generated_Source\PSoC5/cyfitter_cfg.c **** }
 309:Generated_Source\PSoC5/cyfitter_cfg.c **** 
 310:Generated_Source\PSoC5/cyfitter_cfg.c **** 
 311:Generated_Source\PSoC5/cyfitter_cfg.c **** /* Analog API Functions */
 312:Generated_Source\PSoC5/cyfitter_cfg.c **** 
 313:Generated_Source\PSoC5/cyfitter_cfg.c **** 
 314:Generated_Source\PSoC5/cyfitter_cfg.c **** /*******************************************************************************
 315:Generated_Source\PSoC5/cyfitter_cfg.c **** * Function Name: AnalogSetDefault
 316:Generated_Source\PSoC5/cyfitter_cfg.c **** ********************************************************************************
 317:Generated_Source\PSoC5/cyfitter_cfg.c **** *
 318:Generated_Source\PSoC5/cyfitter_cfg.c **** * Summary:
 319:Generated_Source\PSoC5/cyfitter_cfg.c **** *  Sets up the analog portions of the chip to default values based on chip
 320:Generated_Source\PSoC5/cyfitter_cfg.c **** *  configuration options from the project.
 321:Generated_Source\PSoC5/cyfitter_cfg.c **** *
 322:Generated_Source\PSoC5/cyfitter_cfg.c **** * Parameters:
 323:Generated_Source\PSoC5/cyfitter_cfg.c **** *  void
 324:Generated_Source\PSoC5/cyfitter_cfg.c **** *
 325:Generated_Source\PSoC5/cyfitter_cfg.c **** * Return:
 326:Generated_Source\PSoC5/cyfitter_cfg.c **** *  void
 327:Generated_Source\PSoC5/cyfitter_cfg.c **** *
 328:Generated_Source\PSoC5/cyfitter_cfg.c **** *******************************************************************************/
 329:Generated_Source\PSoC5/cyfitter_cfg.c **** static void AnalogSetDefault(void);
 330:Generated_Source\PSoC5/cyfitter_cfg.c **** static void AnalogSetDefault(void)
 331:Generated_Source\PSoC5/cyfitter_cfg.c **** {
 150              		.loc 1 331 0
 151              		.cfi_startproc
 152              		@ args = 0, pretend = 0, frame = 0
 153              		@ frame_needed = 0, uses_anonymous_args = 0
 154 0000 F8B5     		push	{r3, r4, r5, r6, r7, lr}
 155              		.cfi_def_cfa_offset 24
 156              		.cfi_offset 3, -24
 157              		.cfi_offset 4, -20
 158              		.cfi_offset 5, -16
 159              		.cfi_offset 6, -12
 160              		.cfi_offset 7, -8
 161              		.cfi_offset 14, -4
 332:Generated_Source\PSoC5/cyfitter_cfg.c **** 	uint8 bg_xover_inl_trim = CY_GET_XTND_REG8((void CYFAR *)(CYREG_FLSHID_MFG_CFG_BG_XOVER_INL_TRIM +
 162              		.loc 1 332 0
 163 0002 174B     		ldr	r3, .L13
 164 0004 1B78     		ldrb	r3, [r3]	@ zero_extendqisi2
 165 0006 DBB2     		uxtb	r3, r3
 166              	.LVL15:
 333:Generated_Source\PSoC5/cyfitter_cfg.c **** 	uint8 cr4 = CY_GET_XTND_REG8((void CYFAR *)(CYREG_RESET_CR4));
 167              		.loc 1 333 0
 168 0008 164E     		ldr	r6, .L13+4
 169 000a 3478     		ldrb	r4, [r6]	@ zero_extendqisi2
 170 000c E4B2     		uxtb	r4, r4
 171              	.LVL16:
 334:Generated_Source\PSoC5/cyfitter_cfg.c **** 	uint8 cr5 = CY_GET_XTND_REG8((void CYFAR *)(CYREG_RESET_CR5));
 172              		.loc 1 334 0
 173 000e 164F     		ldr	r7, .L13+8
 174 0010 3D78     		ldrb	r5, [r7]	@ zero_extendqisi2
ARM GAS  C:\Users\manuelfu\AppData\Local\Temp\ccya56jc.s 			page 10


 175 0012 EDB2     		uxtb	r5, r5
 176              	.LVL17:
 335:Generated_Source\PSoC5/cyfitter_cfg.c **** 	CY_SET_XTND_REG8((void CYFAR *)(CYREG_BG_DFT0), (bg_xover_inl_trim & 0x07u));
 177              		.loc 1 335 0
 178 0014 03F00701 		and	r1, r3, #7
 179 0018 144A     		ldr	r2, .L13+12
 180 001a 1170     		strb	r1, [r2]
 336:Generated_Source\PSoC5/cyfitter_cfg.c **** 	CY_SET_XTND_REG8((void CYFAR *)(CYREG_BG_DFT1), ((bg_xover_inl_trim >> 4) & 0x0Fu));
 181              		.loc 1 336 0
 182 001c 1B09     		lsrs	r3, r3, #4
 183              	.LVL18:
 184 001e 0132     		adds	r2, r2, #1
 185 0020 1370     		strb	r3, [r2]
 337:Generated_Source\PSoC5/cyfitter_cfg.c **** 	/* Disable PRES while setting up SAR voltage reference */
 338:Generated_Source\PSoC5/cyfitter_cfg.c **** 	CY_SET_XTND_REG8((void CYFAR *)(CYREG_RESET_CR4), (cr4 | 0x03u));
 186              		.loc 1 338 0
 187 0022 44F00303 		orr	r3, r4, #3
 188 0026 3370     		strb	r3, [r6]
 339:Generated_Source\PSoC5/cyfitter_cfg.c **** 	CY_SET_XTND_REG8((void CYFAR *)(CYREG_RESET_CR5), (cr5 | 0x03u));
 189              		.loc 1 339 0
 190 0028 45F00303 		orr	r3, r5, #3
 191 002c 3B70     		strb	r3, [r7]
 340:Generated_Source\PSoC5/cyfitter_cfg.c **** 	CY_SET_XTND_REG8((void CYFAR *)CYREG_PRT2_AG, 0x20u);
 192              		.loc 1 340 0
 193 002e 2022     		movs	r2, #32
 194 0030 0F4B     		ldr	r3, .L13+16
 195 0032 1A70     		strb	r2, [r3]
 341:Generated_Source\PSoC5/cyfitter_cfg.c **** 	CY_SET_XTND_REG8((void CYFAR *)CYREG_SAR1_CSR1, 0x40u);
 196              		.loc 1 341 0
 197 0034 4023     		movs	r3, #64
 198 0036 0F49     		ldr	r1, .L13+20
 199 0038 0B70     		strb	r3, [r1]
 342:Generated_Source\PSoC5/cyfitter_cfg.c **** 	CY_SET_XTND_REG8((void CYFAR *)CYREG_SAR1_CSR3, 0x40u);
 200              		.loc 1 342 0
 201 003a 0231     		adds	r1, r1, #2
 202 003c 0B70     		strb	r3, [r1]
 343:Generated_Source\PSoC5/cyfitter_cfg.c **** 	CY_SET_XTND_REG8((void CYFAR *)CYREG_SAR1_SW0, 0x02u);
 203              		.loc 1 343 0
 204 003e 0223     		movs	r3, #2
 205 0040 01F21D21 		addw	r1, r1, #541
 206 0044 0B70     		strb	r3, [r1]
 344:Generated_Source\PSoC5/cyfitter_cfg.c **** 	CY_SET_XTND_REG8((void CYFAR *)CYREG_SAR1_SW3, 0x20u);
 207              		.loc 1 344 0
 208 0046 0331     		adds	r1, r1, #3
 209 0048 0A70     		strb	r2, [r1]
 345:Generated_Source\PSoC5/cyfitter_cfg.c **** 	CY_SET_XTND_REG8((void CYFAR *)CYREG_BUS_SW0, 0x02u);
 210              		.loc 1 345 0
 211 004a 0B4A     		ldr	r2, .L13+24
 212 004c 1370     		strb	r3, [r2]
 346:Generated_Source\PSoC5/cyfitter_cfg.c **** 	CyDelayUs(10u); /* Allow vref to settle before re-enabling PRES */
 213              		.loc 1 346 0
 214 004e 0A20     		movs	r0, #10
 215 0050 FFF7FEFF 		bl	CyDelayUs
 216              	.LVL19:
 347:Generated_Source\PSoC5/cyfitter_cfg.c **** 	CY_SET_XTND_REG8((void CYFAR *)(CYREG_RESET_CR5), (cr5));
 217              		.loc 1 347 0
 218 0054 3D70     		strb	r5, [r7]
ARM GAS  C:\Users\manuelfu\AppData\Local\Temp\ccya56jc.s 			page 11


 348:Generated_Source\PSoC5/cyfitter_cfg.c **** 	CY_SET_XTND_REG8((void CYFAR *)(CYREG_RESET_CR4), (cr4));
 219              		.loc 1 348 0
 220 0056 3470     		strb	r4, [r6]
 349:Generated_Source\PSoC5/cyfitter_cfg.c **** 	CY_SET_XTND_REG8((void CYFAR *)CYREG_PUMP_CR0, 0x44u);
 221              		.loc 1 349 0
 222 0058 4422     		movs	r2, #68
 223 005a 084B     		ldr	r3, .L13+28
 224 005c 1A70     		strb	r2, [r3]
 225 005e F8BD     		pop	{r3, r4, r5, r6, r7, pc}
 226              	.LVL20:
 227              	.L14:
 228              		.align	2
 229              	.L13:
 230 0060 CF010049 		.word	1224737231
 231 0064 F8460040 		.word	1073759992
 232 0068 F9460040 		.word	1073759993
 233 006c 6E580040 		.word	1073764462
 234 0070 2D510040 		.word	1073762605
 235 0074 09590040 		.word	1073764617
 236 0078 585B0040 		.word	1073765208
 237 007c 76580040 		.word	1073764470
 238              		.cfi_endproc
 239              	.LFE6:
 240              		.size	AnalogSetDefault, .-AnalogSetDefault
 241              		.section	.text.CYCONFIGCPY,"ax",%progbits
 242              		.align	2
 243              		.thumb
 244              		.thumb_func
 245              		.type	CYCONFIGCPY, %function
 246              	CYCONFIGCPY:
 247              	.LFB1:
  85:Generated_Source\PSoC5/cyfitter_cfg.c **** 	(void)memcpy(dest, src, n);
 248              		.loc 1 85 0
 249              		.cfi_startproc
 250              		@ args = 0, pretend = 0, frame = 0
 251              		@ frame_needed = 0, uses_anonymous_args = 0
 252              	.LVL21:
 253 0000 08B5     		push	{r3, lr}
 254              		.cfi_def_cfa_offset 8
 255              		.cfi_offset 3, -8
 256              		.cfi_offset 14, -4
  86:Generated_Source\PSoC5/cyfitter_cfg.c **** }
 257              		.loc 1 86 0
 258 0002 FFF7FEFF 		bl	memcpy
 259              	.LVL22:
 260 0006 08BD     		pop	{r3, pc}
 261              		.cfi_endproc
 262              	.LFE1:
 263              		.size	CYCONFIGCPY, .-CYCONFIGCPY
 264              		.section	.text.ClockSetup,"ax",%progbits
 265              		.align	2
 266              		.thumb
 267              		.thumb_func
 268              		.type	ClockSetup, %function
 269              	ClockSetup:
 270              	.LFB5:
 237:Generated_Source\PSoC5/cyfitter_cfg.c **** 	uint8 x32TrHold;
ARM GAS  C:\Users\manuelfu\AppData\Local\Temp\ccya56jc.s 			page 12


 271              		.loc 1 237 0
 272              		.cfi_startproc
 273              		@ args = 0, pretend = 0, frame = 0
 274              		@ frame_needed = 0, uses_anonymous_args = 0
 275 0000 38B5     		push	{r3, r4, r5, lr}
 276              		.cfi_def_cfa_offset 16
 277              		.cfi_offset 3, -16
 278              		.cfi_offset 4, -12
 279              		.cfi_offset 5, -8
 280              		.cfi_offset 14, -4
 242:Generated_Source\PSoC5/cyfitter_cfg.c **** 
 281              		.loc 1 242 0
 282 0002 464C     		ldr	r4, .L26
 283 0004 2578     		ldrb	r5, [r4]	@ zero_extendqisi2
 284 0006 EDB2     		uxtb	r5, r5
 285              	.LVL23:
 245:Generated_Source\PSoC5/cyfitter_cfg.c **** 	CY_SET_XTND_REG8((void CYFAR *)(CYREG_CLKDIST_DCFG0_CFG0 + 0x2u), 0x18u);
 286              		.loc 1 245 0
 287 0008 1722     		movs	r2, #23
 288 000a 454B     		ldr	r3, .L26+4
 289 000c 1A80     		strh	r2, [r3]	@ movhi
 246:Generated_Source\PSoC5/cyfitter_cfg.c **** 	CY_SET_XTND_REG16((void CYFAR *)(CYREG_CLKDIST_DCFG1_CFG0), 0x0017u);
 290              		.loc 1 246 0
 291 000e 1823     		movs	r3, #24
 292 0010 4449     		ldr	r1, .L26+8
 293 0012 0B70     		strb	r3, [r1]
 247:Generated_Source\PSoC5/cyfitter_cfg.c **** 	CY_SET_XTND_REG8((void CYFAR *)(CYREG_CLKDIST_DCFG1_CFG0 + 0x2u), 0x18u);
 294              		.loc 1 247 0
 295 0014 0231     		adds	r1, r1, #2
 296 0016 0A80     		strh	r2, [r1]	@ movhi
 248:Generated_Source\PSoC5/cyfitter_cfg.c **** 	CY_SET_XTND_REG16((void CYFAR *)(CYREG_CLKDIST_DCFG2_CFG0), 0x0019u);
 297              		.loc 1 248 0
 298 0018 434A     		ldr	r2, .L26+12
 299 001a 1370     		strb	r3, [r2]
 249:Generated_Source\PSoC5/cyfitter_cfg.c **** 	CY_SET_XTND_REG8((void CYFAR *)(CYREG_CLKDIST_DCFG2_CFG0 + 0x2u), 0x18u);
 300              		.loc 1 249 0
 301 001c 1921     		movs	r1, #25
 302 001e 0232     		adds	r2, r2, #2
 303 0020 1180     		strh	r1, [r2]	@ movhi
 250:Generated_Source\PSoC5/cyfitter_cfg.c **** 	CY_SET_XTND_REG16((void CYFAR *)(CYREG_CLKDIST_DCFG3_CFG0), 0x0077u);
 304              		.loc 1 250 0
 305 0022 0232     		adds	r2, r2, #2
 306 0024 1370     		strb	r3, [r2]
 251:Generated_Source\PSoC5/cyfitter_cfg.c **** 	CY_SET_XTND_REG8((void CYFAR *)(CYREG_CLKDIST_DCFG3_CFG0 + 0x2u), 0x18u);
 307              		.loc 1 251 0
 308 0026 7721     		movs	r1, #119
 309 0028 0232     		adds	r2, r2, #2
 310 002a 1180     		strh	r1, [r2]	@ movhi
 252:Generated_Source\PSoC5/cyfitter_cfg.c **** 	CY_SET_XTND_REG16((void CYFAR *)(CYREG_CLKDIST_DCFG4_CFG0), 0x00EFu);
 311              		.loc 1 252 0
 312 002c 0232     		adds	r2, r2, #2
 313 002e 1370     		strb	r3, [r2]
 253:Generated_Source\PSoC5/cyfitter_cfg.c **** 	CY_SET_XTND_REG8((void CYFAR *)(CYREG_CLKDIST_DCFG4_CFG0 + 0x2u), 0x18u);
 314              		.loc 1 253 0
 315 0030 EF21     		movs	r1, #239
 316 0032 0232     		adds	r2, r2, #2
 317 0034 1180     		strh	r1, [r2]	@ movhi
ARM GAS  C:\Users\manuelfu\AppData\Local\Temp\ccya56jc.s 			page 13


 254:Generated_Source\PSoC5/cyfitter_cfg.c **** 
 318              		.loc 1 254 0
 319 0036 0232     		adds	r2, r2, #2
 320 0038 1370     		strb	r3, [r2]
 257:Generated_Source\PSoC5/cyfitter_cfg.c **** 
 321              		.loc 1 257 0
 322 003a 0422     		movs	r2, #4
 323 003c 3B49     		ldr	r1, .L26+16
 324 003e 3C48     		ldr	r0, .L26+20
 325 0040 FFF7FEFF 		bl	CYCONFIGCPY
 326              	.LVL24:
 260:Generated_Source\PSoC5/cyfitter_cfg.c **** 	CY_SET_XTND_REG8((void CYFAR *)(CYREG_CLKDIST_CR), 0x08u);
 327              		.loc 1 260 0
 328 0044 0222     		movs	r2, #2
 329 0046 3B4B     		ldr	r3, .L26+24
 330 0048 1A70     		strb	r2, [r3]
 261:Generated_Source\PSoC5/cyfitter_cfg.c **** 
 331              		.loc 1 261 0
 332 004a 0822     		movs	r2, #8
 333 004c 4FF04023 		mov	r3, #1073758208
 334 0050 1A70     		strb	r2, [r3]
 264:Generated_Source\PSoC5/cyfitter_cfg.c **** 	CY_SET_XTND_REG8((void CYFAR *)(CYREG_X32_TR), 0x03u);
 335              		.loc 1 264 0
 336 0052 F322     		movs	r2, #243
 337 0054 03F20A33 		addw	r3, r3, #778
 338 0058 1A70     		strb	r2, [r3]
 265:Generated_Source\PSoC5/cyfitter_cfg.c **** 	CY_SET_XTND_REG8((void CYFAR *)(CYREG_SLOWCLK_X32_CFG), 0x84u);
 339              		.loc 1 265 0
 340 005a 0323     		movs	r3, #3
 341 005c 2370     		strb	r3, [r4]
 266:Generated_Source\PSoC5/cyfitter_cfg.c **** 	CY_SET_XTND_REG8((void CYFAR *)(CYREG_SLOWCLK_X32_CR), 0x05u);
 342              		.loc 1 266 0
 343 005e 8422     		movs	r2, #132
 344 0060 354B     		ldr	r3, .L26+28
 345 0062 1A70     		strb	r2, [r3]
 267:Generated_Source\PSoC5/cyfitter_cfg.c **** 	/* Wait up to 1000000us for the XTAL 32kHz to lock */
 346              		.loc 1 267 0
 347 0064 0522     		movs	r2, #5
 348 0066 013B     		subs	r3, r3, #1
 349 0068 1A70     		strb	r2, [r3]
 350              	.LVL25:
 269:Generated_Source\PSoC5/cyfitter_cfg.c **** 	{ 
 351              		.loc 1 269 0
 352 006a 344C     		ldr	r4, .L26+32
 353 006c 04E0     		b	.L18
 354              	.LVL26:
 355              	.L20:
 272:Generated_Source\PSoC5/cyfitter_cfg.c **** 	}
 356              		.loc 1 272 0 discriminator 4
 357 006e 4FF4F070 		mov	r0, #480
 358 0072 FFF7FEFF 		bl	CyDelayCycles
 359              	.LVL27:
 269:Generated_Source\PSoC5/cyfitter_cfg.c **** 	{ 
 360              		.loc 1 269 0 discriminator 4
 361 0076 013C     		subs	r4, r4, #1
 362              	.LVL28:
 363              	.L18:
ARM GAS  C:\Users\manuelfu\AppData\Local\Temp\ccya56jc.s 			page 14


 269:Generated_Source\PSoC5/cyfitter_cfg.c **** 	{ 
 364              		.loc 1 269 0 is_stmt 0 discriminator 1
 365 0078 24B1     		cbz	r4, .L19
 269:Generated_Source\PSoC5/cyfitter_cfg.c **** 	{ 
 366              		.loc 1 269 0 discriminator 3
 367 007a 314B     		ldr	r3, .L26+36
 368 007c 1B78     		ldrb	r3, [r3]	@ zero_extendqisi2
 369 007e 13F0200F 		tst	r3, #32
 370 0082 F4D0     		beq	.L20
 371              	.L19:
 274:Generated_Source\PSoC5/cyfitter_cfg.c **** 
 372              		.loc 1 274 0 is_stmt 1
 373 0084 254B     		ldr	r3, .L26
 374 0086 1D70     		strb	r5, [r3]
 277:Generated_Source\PSoC5/cyfitter_cfg.c **** 	CY_SET_XTND_REG8((void CYFAR *)(CYREG_IMO_TR1), (CY_GET_XTND_REG8((void CYFAR *)CYREG_FLSHID_CUST_
 375              		.loc 1 277 0
 376 0088 0322     		movs	r2, #3
 377 008a A3F59363 		sub	r3, r3, #1176
 378 008e 1A70     		strb	r2, [r3]
 278:Generated_Source\PSoC5/cyfitter_cfg.c **** 
 379              		.loc 1 278 0
 380 0090 2C4B     		ldr	r3, .L26+40
 381 0092 1B78     		ldrb	r3, [r3]	@ zero_extendqisi2
 382 0094 DBB2     		uxtb	r3, r3
 383 0096 2C4A     		ldr	r2, .L26+44
 384 0098 1370     		strb	r3, [r2]
 281:Generated_Source\PSoC5/cyfitter_cfg.c **** 	CY_SET_XTND_REG16((void CYFAR *)(CYREG_FASTCLK_PLL_CFG0), 0x1251u);
 385              		.loc 1 281 0
 386 009a 0822     		movs	r2, #8
 387 009c 2B4B     		ldr	r3, .L26+48
 388 009e 1A80     		strh	r2, [r3]	@ movhi
 282:Generated_Source\PSoC5/cyfitter_cfg.c **** 	/* Wait up to 250us for the PLL to lock */
 389              		.loc 1 282 0
 390 00a0 41F25122 		movw	r2, #4689
 391 00a4 023B     		subs	r3, r3, #2
 392 00a6 1A80     		strh	r2, [r3]	@ movhi
 393              	.LVL29:
 284:Generated_Source\PSoC5/cyfitter_cfg.c **** 	for (timeout = 250u / 10u; (timeout > 0u) && (pllLock != 0x03u); timeout--)
 394              		.loc 1 284 0
 395 00a8 0024     		movs	r4, #0
 285:Generated_Source\PSoC5/cyfitter_cfg.c **** 	{ 
 396              		.loc 1 285 0
 397 00aa 1925     		movs	r5, #25
 398              	.LVL30:
 399 00ac 0CE0     		b	.L21
 400              	.LVL31:
 401              	.L23:
 287:Generated_Source\PSoC5/cyfitter_cfg.c **** 		CyDelayCycles(10u * 48u); /* Delay 10us based on 48MHz clock */
 402              		.loc 1 287 0 discriminator 4
 403 00ae 284B     		ldr	r3, .L26+52
 404 00b0 1B78     		ldrb	r3, [r3]	@ zero_extendqisi2
 405 00b2 03F00103 		and	r3, r3, #1
 406 00b6 43EA4404 		orr	r4, r3, r4, lsl #1
 407              	.LVL32:
 408 00ba 04F00304 		and	r4, r4, #3
 409              	.LVL33:
 288:Generated_Source\PSoC5/cyfitter_cfg.c **** 	}
ARM GAS  C:\Users\manuelfu\AppData\Local\Temp\ccya56jc.s 			page 15


 410              		.loc 1 288 0 discriminator 4
 411 00be 4FF4F070 		mov	r0, #480
 412 00c2 FFF7FEFF 		bl	CyDelayCycles
 413              	.LVL34:
 285:Generated_Source\PSoC5/cyfitter_cfg.c **** 	{ 
 414              		.loc 1 285 0 discriminator 4
 415 00c6 013D     		subs	r5, r5, #1
 416              	.LVL35:
 417              	.L21:
 285:Generated_Source\PSoC5/cyfitter_cfg.c **** 	{ 
 418              		.loc 1 285 0 is_stmt 0 discriminator 1
 419 00c8 0DB1     		cbz	r5, .L22
 285:Generated_Source\PSoC5/cyfitter_cfg.c **** 	{ 
 420              		.loc 1 285 0 discriminator 3
 421 00ca 032C     		cmp	r4, #3
 422 00cc EFD1     		bne	.L23
 423              	.L22:
 291:Generated_Source\PSoC5/cyfitter_cfg.c **** 	{
 424              		.loc 1 291 0 is_stmt 1
 425 00ce 15B9     		cbnz	r5, .L24
 293:Generated_Source\PSoC5/cyfitter_cfg.c **** 	}
 426              		.loc 1 293 0
 427 00d0 0320     		movs	r0, #3
 428 00d2 FFF7FEFF 		bl	CyClockStartupError
 429              	.LVL36:
 430              	.L24:
 297:Generated_Source\PSoC5/cyfitter_cfg.c **** 	CY_SET_XTND_REG8((void CYFAR *)(CYREG_CLKDIST_MSTR0), 0x07u);
 431              		.loc 1 297 0
 432 00d6 1F4B     		ldr	r3, .L26+56
 433 00d8 4FF48072 		mov	r2, #256
 434 00dc 1A80     		strh	r2, [r3]	@ movhi
 298:Generated_Source\PSoC5/cyfitter_cfg.c **** 	CY_SET_XTND_REG8((void CYFAR *)(CYREG_CLKDIST_BCFG0), 0x00u);
 435              		.loc 1 298 0
 436 00de 0722     		movs	r2, #7
 437 00e0 1A70     		strb	r2, [r3]
 299:Generated_Source\PSoC5/cyfitter_cfg.c **** 	CY_SET_XTND_REG8((void CYFAR *)(CYREG_CLKDIST_BCFG2), 0x48u);
 438              		.loc 1 299 0
 439 00e2 0022     		movs	r2, #0
 440 00e4 1C49     		ldr	r1, .L26+60
 441 00e6 0A70     		strb	r2, [r1]
 300:Generated_Source\PSoC5/cyfitter_cfg.c **** 	CY_SET_XTND_REG8((void CYFAR *)(CYREG_CLKDIST_MSTR0), 0x00u);
 442              		.loc 1 300 0
 443 00e8 4820     		movs	r0, #72
 444 00ea 0231     		adds	r1, r1, #2
 445 00ec 0870     		strb	r0, [r1]
 301:Generated_Source\PSoC5/cyfitter_cfg.c **** 	CY_SET_XTND_REG8((void CYFAR *)(CYREG_CLKDIST_LD), 0x02u);
 446              		.loc 1 301 0
 447 00ee 1A70     		strb	r2, [r3]
 302:Generated_Source\PSoC5/cyfitter_cfg.c **** 	CY_SET_XTND_REG8((void CYFAR *)(CYREG_CLKDIST_DLY1), 0x04u);
 448              		.loc 1 302 0
 449 00f0 0222     		movs	r2, #2
 450 00f2 033B     		subs	r3, r3, #3
 451 00f4 1A70     		strb	r2, [r3]
 303:Generated_Source\PSoC5/cyfitter_cfg.c **** 
 452              		.loc 1 303 0
 453 00f6 0422     		movs	r2, #4
 454 00f8 0A33     		adds	r3, r3, #10
ARM GAS  C:\Users\manuelfu\AppData\Local\Temp\ccya56jc.s 			page 16


 455 00fa 1A70     		strb	r2, [r3]
 305:Generated_Source\PSoC5/cyfitter_cfg.c **** 	CY_SET_XTND_REG8((void CYFAR *)(CYREG_PM_ACT_CFG1), ((CY_GET_XTND_REG8((void CYFAR *)CYREG_PM_ACT_
 456              		.loc 1 305 0
 457 00fc 174A     		ldr	r2, .L26+64
 458 00fe 1378     		ldrb	r3, [r2]	@ zero_extendqisi2
 459 0100 43F01F03 		orr	r3, r3, #31
 460 0104 1370     		strb	r3, [r2]
 306:Generated_Source\PSoC5/cyfitter_cfg.c **** 	CY_SET_XTND_REG8((void CYFAR *)(CYREG_PM_ACT_CFG0), ((CY_GET_XTND_REG8((void CYFAR *)CYREG_PM_ACT_
 461              		.loc 1 306 0
 462 0106 013A     		subs	r2, r2, #1
 463 0108 1378     		ldrb	r3, [r2]	@ zero_extendqisi2
 464 010a 43F00103 		orr	r3, r3, #1
 465 010e 1370     		strb	r3, [r2]
 307:Generated_Source\PSoC5/cyfitter_cfg.c **** }
 466              		.loc 1 307 0
 467 0110 013A     		subs	r2, r2, #1
 468 0112 1378     		ldrb	r3, [r2]	@ zero_extendqisi2
 469 0114 43F08003 		orr	r3, r3, #128
 470 0118 1370     		strb	r3, [r2]
 471 011a 38BD     		pop	{r3, r4, r5, pc}
 472              	.LVL37:
 473              	.L27:
 474              		.align	2
 475              	.L26:
 476 011c 98460040 		.word	1073759896
 477 0120 80400040 		.word	1073758336
 478 0124 82400040 		.word	1073758338
 479 0128 86400040 		.word	1073758342
 480 012c A80C0048 		.word	1207962792
 481 0130 00410040 		.word	1073758464
 482 0134 00430040 		.word	1073758976
 483 0138 09430040 		.word	1073758985
 484 013c A0860100 		.word	100000
 485 0140 08430040 		.word	1073758984
 486 0144 08010049 		.word	1224737032
 487 0148 A1460040 		.word	1073759905
 488 014c 22420040 		.word	1073758754
 489 0150 25420040 		.word	1073758757
 490 0154 04400040 		.word	1073758212
 491 0158 06400040 		.word	1073758214
 492 015c A2430040 		.word	1073759138
 493              		.cfi_endproc
 494              	.LFE5:
 495              		.size	ClockSetup, .-ClockSetup
 496              		.section	.text.SetAnalogRoutingPumps,"ax",%progbits
 497              		.align	2
 498              		.global	SetAnalogRoutingPumps
 499              		.thumb
 500              		.thumb_func
 501              		.type	SetAnalogRoutingPumps, %function
 502              	SetAnalogRoutingPumps:
 503              	.LFB7:
 350:Generated_Source\PSoC5/cyfitter_cfg.c **** }
 351:Generated_Source\PSoC5/cyfitter_cfg.c **** 
 352:Generated_Source\PSoC5/cyfitter_cfg.c **** 
 353:Generated_Source\PSoC5/cyfitter_cfg.c **** /*******************************************************************************
 354:Generated_Source\PSoC5/cyfitter_cfg.c **** * Function Name: SetAnalogRoutingPumps
ARM GAS  C:\Users\manuelfu\AppData\Local\Temp\ccya56jc.s 			page 17


 355:Generated_Source\PSoC5/cyfitter_cfg.c **** ********************************************************************************
 356:Generated_Source\PSoC5/cyfitter_cfg.c **** *
 357:Generated_Source\PSoC5/cyfitter_cfg.c **** * Summary:
 358:Generated_Source\PSoC5/cyfitter_cfg.c **** * Enables or disables the analog pumps feeding analog routing switches.
 359:Generated_Source\PSoC5/cyfitter_cfg.c **** * Intended to be called at startup, based on the Vdda system configuration;
 360:Generated_Source\PSoC5/cyfitter_cfg.c **** * may be called during operation when the user informs us that the Vdda voltage
 361:Generated_Source\PSoC5/cyfitter_cfg.c **** * crossed the pump threshold.
 362:Generated_Source\PSoC5/cyfitter_cfg.c **** *
 363:Generated_Source\PSoC5/cyfitter_cfg.c **** * Parameters:
 364:Generated_Source\PSoC5/cyfitter_cfg.c **** *  enabled - 1 to enable the pumps, 0 to disable the pumps
 365:Generated_Source\PSoC5/cyfitter_cfg.c **** *
 366:Generated_Source\PSoC5/cyfitter_cfg.c **** * Return:
 367:Generated_Source\PSoC5/cyfitter_cfg.c **** *  void
 368:Generated_Source\PSoC5/cyfitter_cfg.c **** *
 369:Generated_Source\PSoC5/cyfitter_cfg.c **** *******************************************************************************/
 370:Generated_Source\PSoC5/cyfitter_cfg.c **** void SetAnalogRoutingPumps(uint8 enabled)
 371:Generated_Source\PSoC5/cyfitter_cfg.c **** {
 504              		.loc 1 371 0
 505              		.cfi_startproc
 506              		@ args = 0, pretend = 0, frame = 0
 507              		@ frame_needed = 0, uses_anonymous_args = 0
 508              		@ link register save eliminated.
 509              	.LVL38:
 372:Generated_Source\PSoC5/cyfitter_cfg.c **** 	uint8 regValue = CY_GET_XTND_REG8((void CYFAR *)CYREG_PUMP_CR0);
 510              		.loc 1 372 0
 511 0000 054B     		ldr	r3, .L31
 512 0002 1B78     		ldrb	r3, [r3]	@ zero_extendqisi2
 513 0004 DBB2     		uxtb	r3, r3
 514              	.LVL39:
 373:Generated_Source\PSoC5/cyfitter_cfg.c **** 	if (enabled != 0u)
 515              		.loc 1 373 0
 516 0006 10B1     		cbz	r0, .L29
 374:Generated_Source\PSoC5/cyfitter_cfg.c **** 	{
 375:Generated_Source\PSoC5/cyfitter_cfg.c **** 		regValue |= 0x22u;
 517              		.loc 1 375 0
 518 0008 43F02203 		orr	r3, r3, #34
 519              	.LVL40:
 520 000c 01E0     		b	.L30
 521              	.L29:
 376:Generated_Source\PSoC5/cyfitter_cfg.c **** 	}
 377:Generated_Source\PSoC5/cyfitter_cfg.c **** 	else
 378:Generated_Source\PSoC5/cyfitter_cfg.c **** 	{
 379:Generated_Source\PSoC5/cyfitter_cfg.c **** 		regValue &= (uint8)~0x22u;
 522              		.loc 1 379 0
 523 000e 03F0DD03 		and	r3, r3, #221
 524              	.LVL41:
 525              	.L30:
 380:Generated_Source\PSoC5/cyfitter_cfg.c **** 	}
 381:Generated_Source\PSoC5/cyfitter_cfg.c **** 	CY_SET_XTND_REG8((void CYFAR *)CYREG_PUMP_CR0, regValue);
 526              		.loc 1 381 0
 527 0012 014A     		ldr	r2, .L31
 528 0014 1370     		strb	r3, [r2]
 529 0016 7047     		bx	lr
 530              	.L32:
 531              		.align	2
 532              	.L31:
 533 0018 76580040 		.word	1073764470
ARM GAS  C:\Users\manuelfu\AppData\Local\Temp\ccya56jc.s 			page 18


 534              		.cfi_endproc
 535              	.LFE7:
 536              		.size	SetAnalogRoutingPumps, .-SetAnalogRoutingPumps
 537              		.section	.text.cyfitter_cfg,"ax",%progbits
 538              		.align	2
 539              		.global	cyfitter_cfg
 540              		.thumb
 541              		.thumb_func
 542              		.type	cyfitter_cfg, %function
 543              	cyfitter_cfg:
 544              	.LFB8:
 382:Generated_Source\PSoC5/cyfitter_cfg.c **** }
 383:Generated_Source\PSoC5/cyfitter_cfg.c **** 
 384:Generated_Source\PSoC5/cyfitter_cfg.c **** 
 385:Generated_Source\PSoC5/cyfitter_cfg.c **** 
 386:Generated_Source\PSoC5/cyfitter_cfg.c **** 
 387:Generated_Source\PSoC5/cyfitter_cfg.c **** /*******************************************************************************
 388:Generated_Source\PSoC5/cyfitter_cfg.c **** * Function Name: cyfitter_cfg
 389:Generated_Source\PSoC5/cyfitter_cfg.c **** ********************************************************************************
 390:Generated_Source\PSoC5/cyfitter_cfg.c **** * Summary:
 391:Generated_Source\PSoC5/cyfitter_cfg.c **** *  This function is called by the start-up code for the selected device. It
 392:Generated_Source\PSoC5/cyfitter_cfg.c **** *  performs all of the necessary device configuration based on the design
 393:Generated_Source\PSoC5/cyfitter_cfg.c **** *  settings.  This includes settings from the Design Wide Resources (DWR) such
 394:Generated_Source\PSoC5/cyfitter_cfg.c **** *  as Clocks and Pins as well as any component configuration that is necessary.
 395:Generated_Source\PSoC5/cyfitter_cfg.c **** *
 396:Generated_Source\PSoC5/cyfitter_cfg.c **** * Parameters:
 397:Generated_Source\PSoC5/cyfitter_cfg.c **** *   void
 398:Generated_Source\PSoC5/cyfitter_cfg.c **** *
 399:Generated_Source\PSoC5/cyfitter_cfg.c **** * Return:
 400:Generated_Source\PSoC5/cyfitter_cfg.c **** *   void
 401:Generated_Source\PSoC5/cyfitter_cfg.c **** *
 402:Generated_Source\PSoC5/cyfitter_cfg.c **** *******************************************************************************/
 403:Generated_Source\PSoC5/cyfitter_cfg.c **** 
 404:Generated_Source\PSoC5/cyfitter_cfg.c **** void cyfitter_cfg(void)
 405:Generated_Source\PSoC5/cyfitter_cfg.c **** {
 545              		.loc 1 405 0
 546              		.cfi_startproc
 547              		@ args = 0, pretend = 0, frame = 0
 548              		@ frame_needed = 0, uses_anonymous_args = 0
 549 0000 38B5     		push	{r3, r4, r5, lr}
 550              		.cfi_def_cfa_offset 16
 551              		.cfi_offset 3, -16
 552              		.cfi_offset 4, -12
 553              		.cfi_offset 5, -8
 554              		.cfi_offset 14, -4
 406:Generated_Source\PSoC5/cyfitter_cfg.c **** #ifdef CYGlobalIntDisable
 407:Generated_Source\PSoC5/cyfitter_cfg.c **** 	/* Disable interrupts by default. Let user enable if/when they want. */
 408:Generated_Source\PSoC5/cyfitter_cfg.c **** 	CYGlobalIntDisable
 555              		.loc 1 408 0
 556              		.syntax unified
 557              	@ 408 "Generated_Source\PSoC5\cyfitter_cfg.c" 1
 558 0002 72B6     		CPSID   i
 559              	@ 0 "" 2
 409:Generated_Source\PSoC5/cyfitter_cfg.c **** #endif
 410:Generated_Source\PSoC5/cyfitter_cfg.c **** 
 411:Generated_Source\PSoC5/cyfitter_cfg.c **** 	/* Enable/Disable Debug functionality based on settings from System DWR */
 412:Generated_Source\PSoC5/cyfitter_cfg.c **** 	CY_SET_XTND_REG8((void CYFAR *)CYREG_MLOGIC_DEBUG, (CY_GET_XTND_REG8((void CYFAR *)CYREG_MLOGIC_DE
ARM GAS  C:\Users\manuelfu\AppData\Local\Temp\ccya56jc.s 			page 19


 560              		.loc 1 412 0
 561              		.thumb
 562              		.syntax unified
 563 0004 3A4A     		ldr	r2, .L39
 564 0006 1378     		ldrb	r3, [r2]	@ zero_extendqisi2
 565 0008 43F00403 		orr	r3, r3, #4
 566 000c 1370     		strb	r3, [r2]
 567              	.LVL42:
 568              	.LBB3:
 413:Generated_Source\PSoC5/cyfitter_cfg.c **** 
 414:Generated_Source\PSoC5/cyfitter_cfg.c **** 	{
 415:Generated_Source\PSoC5/cyfitter_cfg.c **** 
 416:Generated_Source\PSoC5/cyfitter_cfg.c **** 		CYPACKED typedef struct {
 417:Generated_Source\PSoC5/cyfitter_cfg.c **** 			void CYFAR *address;
 418:Generated_Source\PSoC5/cyfitter_cfg.c **** 			uint16 size;
 419:Generated_Source\PSoC5/cyfitter_cfg.c **** 		} CYPACKED_ATTR cfg_memset_t;
 420:Generated_Source\PSoC5/cyfitter_cfg.c **** 
 421:Generated_Source\PSoC5/cyfitter_cfg.c **** 
 422:Generated_Source\PSoC5/cyfitter_cfg.c **** 		CYPACKED typedef struct {
 423:Generated_Source\PSoC5/cyfitter_cfg.c **** 			void CYFAR *dest;
 424:Generated_Source\PSoC5/cyfitter_cfg.c **** 			const void CYFAR *src;
 425:Generated_Source\PSoC5/cyfitter_cfg.c **** 			uint16 size;
 426:Generated_Source\PSoC5/cyfitter_cfg.c **** 		} CYPACKED_ATTR cfg_memcpy_t;
 427:Generated_Source\PSoC5/cyfitter_cfg.c **** 
 428:Generated_Source\PSoC5/cyfitter_cfg.c **** 		static const cfg_memset_t CYCODE cfg_memset_list[] = {
 429:Generated_Source\PSoC5/cyfitter_cfg.c **** 			/* address, size */
 430:Generated_Source\PSoC5/cyfitter_cfg.c **** 			{(void CYFAR *)(CYREG_I2C_XCFG), 25u},
 431:Generated_Source\PSoC5/cyfitter_cfg.c **** 			{(void CYFAR *)(CYREG_TMR0_CFG0), 48u},
 432:Generated_Source\PSoC5/cyfitter_cfg.c **** 			{(void CYFAR *)(CYREG_PRT4_DR), 48u},
 433:Generated_Source\PSoC5/cyfitter_cfg.c **** 			{(void CYFAR *)(CYDEV_UCFG_B0_P0_U0_BASE), 4096u},
 434:Generated_Source\PSoC5/cyfitter_cfg.c **** 			{(void CYFAR *)(CYDEV_UCFG_B1_P2_U0_BASE), 2048u},
 435:Generated_Source\PSoC5/cyfitter_cfg.c **** 			{(void CYFAR *)(CYDEV_UCFG_DSI0_BASE), 2560u},
 436:Generated_Source\PSoC5/cyfitter_cfg.c **** 			{(void CYFAR *)(CYDEV_UCFG_DSI12_BASE), 512u},
 437:Generated_Source\PSoC5/cyfitter_cfg.c **** 			{(void CYFAR *)(CYREG_BCTL0_MDCLK_EN), 32u},
 438:Generated_Source\PSoC5/cyfitter_cfg.c **** 		};
 439:Generated_Source\PSoC5/cyfitter_cfg.c **** 
 440:Generated_Source\PSoC5/cyfitter_cfg.c **** 		static const cfg_memcpy_t CYCODE cfg_memcpy_list [] = {
 441:Generated_Source\PSoC5/cyfitter_cfg.c **** 			/* dest, src, size */
 442:Generated_Source\PSoC5/cyfitter_cfg.c **** 			{(void CYFAR *)(CYDEV_PRTDSI_PRT12_BASE), BS_IOPORT_7_VAL, 6u},
 443:Generated_Source\PSoC5/cyfitter_cfg.c **** 		};
 444:Generated_Source\PSoC5/cyfitter_cfg.c **** 
 445:Generated_Source\PSoC5/cyfitter_cfg.c **** 		uint8 CYDATA i;
 446:Generated_Source\PSoC5/cyfitter_cfg.c **** 
 447:Generated_Source\PSoC5/cyfitter_cfg.c **** 		/* Zero out critical memory blocks before beginning configuration */
 448:Generated_Source\PSoC5/cyfitter_cfg.c **** 		for (i = 0u; i < (sizeof(cfg_memset_list)/sizeof(cfg_memset_list[0])); i++)
 569              		.loc 1 448 0
 570 000e 0024     		movs	r4, #0
 571 0010 0CE0     		b	.L34
 572              	.LVL43:
 573              	.L35:
 574              	.LBB4:
 449:Generated_Source\PSoC5/cyfitter_cfg.c **** 		{
 450:Generated_Source\PSoC5/cyfitter_cfg.c **** 			const cfg_memset_t CYCODE * CYDATA ms = &cfg_memset_list[i];
 451:Generated_Source\PSoC5/cyfitter_cfg.c **** 			CYMEMZERO(ms->address, (size_t)(uint32)(ms->size));
 575              		.loc 1 451 0 discriminator 3
 576 0012 384D     		ldr	r5, .L39+4
 577 0014 6300     		lsls	r3, r4, #1
ARM GAS  C:\Users\manuelfu\AppData\Local\Temp\ccya56jc.s 			page 20


 578 0016 1919     		adds	r1, r3, r4
 579 0018 4A00     		lsls	r2, r1, #1
 580 001a 1146     		mov	r1, r2
 581 001c 2A44     		add	r2, r2, r5
 582 001e 0846     		mov	r0, r1
 583 0020 9188     		ldrh	r1, [r2, #4]
 584 0022 2858     		ldr	r0, [r5, r0]	@ unaligned
 585 0024 FFF7FEFF 		bl	CYMEMZERO
 586              	.LVL44:
 587              	.LBE4:
 448:Generated_Source\PSoC5/cyfitter_cfg.c **** 		{
 588              		.loc 1 448 0 discriminator 3
 589 0028 0134     		adds	r4, r4, #1
 590              	.LVL45:
 591 002a E4B2     		uxtb	r4, r4
 592              	.LVL46:
 593              	.L34:
 448:Generated_Source\PSoC5/cyfitter_cfg.c **** 		{
 594              		.loc 1 448 0 is_stmt 0 discriminator 1
 595 002c 072C     		cmp	r4, #7
 596 002e F0D9     		bls	.L35
 597 0030 0024     		movs	r4, #0
 598              	.LVL47:
 599 0032 0BE0     		b	.L36
 600              	.LVL48:
 601              	.L37:
 602              	.LBB5:
 452:Generated_Source\PSoC5/cyfitter_cfg.c **** 		}
 453:Generated_Source\PSoC5/cyfitter_cfg.c **** 
 454:Generated_Source\PSoC5/cyfitter_cfg.c **** 		/* Copy device configuration data into registers */
 455:Generated_Source\PSoC5/cyfitter_cfg.c **** 		for (i = 0u; i < (sizeof(cfg_memcpy_list)/sizeof(cfg_memcpy_list[0])); i++)
 456:Generated_Source\PSoC5/cyfitter_cfg.c **** 		{
 457:Generated_Source\PSoC5/cyfitter_cfg.c **** 			const cfg_memcpy_t CYCODE * CYDATA mc = &cfg_memcpy_list[i];
 458:Generated_Source\PSoC5/cyfitter_cfg.c **** 			void * CYDATA destPtr = mc->dest;
 603              		.loc 1 458 0 is_stmt 1 discriminator 3
 604 0034 2F49     		ldr	r1, .L39+4
 605 0036 A300     		lsls	r3, r4, #2
 606 0038 1819     		adds	r0, r3, r4
 607 003a 4200     		lsls	r2, r0, #1
 608 003c 8818     		adds	r0, r1, r2
 609              	.LVL49:
 459:Generated_Source\PSoC5/cyfitter_cfg.c **** 			const void * CYDATA srcPtr = mc->src;
 460:Generated_Source\PSoC5/cyfitter_cfg.c **** 			uint16 CYDATA numBytes = mc->size;
 461:Generated_Source\PSoC5/cyfitter_cfg.c **** 			CYCONFIGCPY(destPtr, srcPtr, numBytes);
 610              		.loc 1 461 0 discriminator 3
 611 003e 0622     		movs	r2, #6
 612 0040 416B     		ldr	r1, [r0, #52]	@ unaligned
 613              	.LVL50:
 614 0042 006B     		ldr	r0, [r0, #48]	@ unaligned
 615              	.LVL51:
 616 0044 FFF7FEFF 		bl	CYCONFIGCPY
 617              	.LVL52:
 618              	.LBE5:
 455:Generated_Source\PSoC5/cyfitter_cfg.c **** 		{
 619              		.loc 1 455 0 discriminator 3
 620 0048 0134     		adds	r4, r4, #1
 621              	.LVL53:
ARM GAS  C:\Users\manuelfu\AppData\Local\Temp\ccya56jc.s 			page 21


 622 004a E4B2     		uxtb	r4, r4
 623              	.LVL54:
 624              	.L36:
 455:Generated_Source\PSoC5/cyfitter_cfg.c **** 		{
 625              		.loc 1 455 0 is_stmt 0 discriminator 1
 626 004c 002C     		cmp	r4, #0
 627 004e F1D0     		beq	.L37
 462:Generated_Source\PSoC5/cyfitter_cfg.c **** 		}
 463:Generated_Source\PSoC5/cyfitter_cfg.c **** 
 464:Generated_Source\PSoC5/cyfitter_cfg.c **** 		cfg_write_bytes32(cy_cfg_addr_table, cy_cfg_data_table);
 628              		.loc 1 464 0 is_stmt 1
 629 0050 2949     		ldr	r1, .L39+8
 630 0052 4FF09040 		mov	r0, #1207959552
 631 0056 FFF7FEFF 		bl	cfg_write_bytes32
 632              	.LVL55:
 465:Generated_Source\PSoC5/cyfitter_cfg.c **** 
 466:Generated_Source\PSoC5/cyfitter_cfg.c **** 		/* Enable digital routing */
 467:Generated_Source\PSoC5/cyfitter_cfg.c **** 		CY_SET_XTND_REG8((void CYFAR *)CYREG_BCTL0_BANK_CTL, CY_GET_XTND_REG8((void CYFAR *)CYREG_BCTL0_B
 633              		.loc 1 467 0
 634 005a 284A     		ldr	r2, .L39+12
 635 005c 1378     		ldrb	r3, [r2]	@ zero_extendqisi2
 636 005e 43F00203 		orr	r3, r3, #2
 637 0062 1370     		strb	r3, [r2]
 468:Generated_Source\PSoC5/cyfitter_cfg.c **** 		CY_SET_XTND_REG8((void CYFAR *)CYREG_BCTL1_BANK_CTL, CY_GET_XTND_REG8((void CYFAR *)CYREG_BCTL1_B
 638              		.loc 1 468 0
 639 0064 1032     		adds	r2, r2, #16
 640 0066 1378     		ldrb	r3, [r2]	@ zero_extendqisi2
 641 0068 43F00203 		orr	r3, r3, #2
 642 006c 1370     		strb	r3, [r2]
 469:Generated_Source\PSoC5/cyfitter_cfg.c **** 
 470:Generated_Source\PSoC5/cyfitter_cfg.c **** 		/* Enable UDB array */
 471:Generated_Source\PSoC5/cyfitter_cfg.c **** 		CY_SET_XTND_REG8((void CYFAR *)CYREG_PM_ACT_CFG0, CY_GET_XTND_REG8((void CYFAR *)CYREG_PM_ACT_CFG
 643              		.loc 1 471 0
 644 006e 244C     		ldr	r4, .L39+16
 645              	.LVL56:
 646 0070 2378     		ldrb	r3, [r4]	@ zero_extendqisi2
 647 0072 43F04003 		orr	r3, r3, #64
 648 0076 2370     		strb	r3, [r4]
 472:Generated_Source\PSoC5/cyfitter_cfg.c **** 		CY_SET_XTND_REG8((void CYFAR *)CYREG_PM_AVAIL_CR2, CY_GET_XTND_REG8((void CYFAR *)CYREG_PM_AVAIL_
 649              		.loc 1 472 0
 650 0078 A2F58632 		sub	r2, r2, #68608
 651 007c 513A     		subs	r2, r2, #81
 652 007e 1378     		ldrb	r3, [r2]	@ zero_extendqisi2
 653 0080 43F01003 		orr	r3, r3, #16
 654 0084 1370     		strb	r3, [r2]
 655              	.LBE3:
 473:Generated_Source\PSoC5/cyfitter_cfg.c **** 	}
 474:Generated_Source\PSoC5/cyfitter_cfg.c **** 
 475:Generated_Source\PSoC5/cyfitter_cfg.c **** 
 476:Generated_Source\PSoC5/cyfitter_cfg.c **** 	/* Perform second pass device configuration. These items must be configured in specific order afte
 477:Generated_Source\PSoC5/cyfitter_cfg.c **** 	CYCONFIGCPY((void CYFAR *)(CYREG_PRT0_DM0), (const void CYFAR *)(BS_IOPINS0_0_VAL), 8u);
 656              		.loc 1 477 0
 657 0086 0822     		movs	r2, #8
 658 0088 1E49     		ldr	r1, .L39+20
 659 008a 1F48     		ldr	r0, .L39+24
 660 008c FFF7FEFF 		bl	CYCONFIGCPY
 661              	.LVL57:
ARM GAS  C:\Users\manuelfu\AppData\Local\Temp\ccya56jc.s 			page 22


 478:Generated_Source\PSoC5/cyfitter_cfg.c **** 	CYCONFIGCPY((void CYFAR *)(CYREG_PRT12_DR), (const void CYFAR *)(BS_IOPINS0_7_VAL), 10u);
 662              		.loc 1 478 0
 663 0090 0A22     		movs	r2, #10
 664 0092 1E49     		ldr	r1, .L39+28
 665 0094 1E48     		ldr	r0, .L39+32
 666 0096 FFF7FEFF 		bl	CYCONFIGCPY
 667              	.LVL58:
 479:Generated_Source\PSoC5/cyfitter_cfg.c **** 	CYCONFIGCPY((void CYFAR *)(CYREG_PRT15_DM0), (const void CYFAR *)(BS_IOPINS0_8_VAL), 8u);
 668              		.loc 1 479 0
 669 009a 0822     		movs	r2, #8
 670 009c 1D49     		ldr	r1, .L39+36
 671 009e 1E48     		ldr	r0, .L39+40
 672 00a0 FFF7FEFF 		bl	CYCONFIGCPY
 673              	.LVL59:
 480:Generated_Source\PSoC5/cyfitter_cfg.c **** 	CYCONFIGCPY((void CYFAR *)(CYREG_PRT1_DM0), (const void CYFAR *)(BS_IOPINS0_1_VAL), 8u);
 674              		.loc 1 480 0
 675 00a4 0822     		movs	r2, #8
 676 00a6 1D49     		ldr	r1, .L39+44
 677 00a8 1D48     		ldr	r0, .L39+48
 678 00aa FFF7FEFF 		bl	CYCONFIGCPY
 679              	.LVL60:
 481:Generated_Source\PSoC5/cyfitter_cfg.c **** 	CYCONFIGCPY((void CYFAR *)(CYREG_PRT2_DR), (const void CYFAR *)(BS_IOPINS0_2_VAL), 10u);
 680              		.loc 1 481 0
 681 00ae 0A22     		movs	r2, #10
 682 00b0 1C49     		ldr	r1, .L39+52
 683 00b2 1D48     		ldr	r0, .L39+56
 684 00b4 FFF7FEFF 		bl	CYCONFIGCPY
 685              	.LVL61:
 482:Generated_Source\PSoC5/cyfitter_cfg.c **** 	CYCONFIGCPY((void CYFAR *)(CYREG_PRT3_DM0), (const void CYFAR *)(BS_IOPINS0_3_VAL), 8u);
 686              		.loc 1 482 0
 687 00b8 0822     		movs	r2, #8
 688 00ba 1C49     		ldr	r1, .L39+60
 689 00bc 1C48     		ldr	r0, .L39+64
 690 00be FFF7FEFF 		bl	CYCONFIGCPY
 691              	.LVL62:
 483:Generated_Source\PSoC5/cyfitter_cfg.c **** 	/* Switch Boost to the precision bandgap reference from its internal reference */
 484:Generated_Source\PSoC5/cyfitter_cfg.c **** 	CY_SET_REG8((void CYXDATA *)CYREG_BOOST_CR2, (CY_GET_REG8((void CYXDATA *)CYREG_BOOST_CR2) | 0x08u
 692              		.loc 1 484 0
 693 00c2 1C4A     		ldr	r2, .L39+68
 694 00c4 1378     		ldrb	r3, [r2]	@ zero_extendqisi2
 695 00c6 43F00803 		orr	r3, r3, #8
 696 00ca 1370     		strb	r3, [r2]
 485:Generated_Source\PSoC5/cyfitter_cfg.c **** 
 486:Generated_Source\PSoC5/cyfitter_cfg.c **** 	/* Set Flash Cycles based on max possible frequency in case a glitch occurs during ClockSetup(). *
 487:Generated_Source\PSoC5/cyfitter_cfg.c **** 	CY_SET_XTND_REG8((void CYFAR *)(CYREG_CACHE_CC_CTL), (((CYDEV_INSTRUCT_CACHE_ENABLED) != 0) ? 0x61
 697              		.loc 1 487 0
 698 00cc 1A4D     		ldr	r5, .L39+72
 699 00ce 6123     		movs	r3, #97
 700 00d0 2B70     		strb	r3, [r5]
 488:Generated_Source\PSoC5/cyfitter_cfg.c **** 	/* Setup clocks based on selections from Clock DWR */
 489:Generated_Source\PSoC5/cyfitter_cfg.c **** 	ClockSetup();
 701              		.loc 1 489 0
 702 00d2 FFF7FEFF 		bl	ClockSetup
 703              	.LVL63:
 490:Generated_Source\PSoC5/cyfitter_cfg.c **** 	/* Set Flash Cycles based on newly configured 24.00MHz Bus Clock. */
 491:Generated_Source\PSoC5/cyfitter_cfg.c **** 	CY_SET_XTND_REG8((void CYFAR *)(CYREG_CACHE_CC_CTL), (((CYDEV_INSTRUCT_CACHE_ENABLED) != 0) ? 0x81
 704              		.loc 1 491 0
ARM GAS  C:\Users\manuelfu\AppData\Local\Temp\ccya56jc.s 			page 23


 705 00d6 8123     		movs	r3, #129
 706 00d8 2B70     		strb	r3, [r5]
 492:Generated_Source\PSoC5/cyfitter_cfg.c **** 	CY_SET_XTND_REG8((void CYFAR *)(CYREG_PANTHER_WAITPIPE), 0x01u);
 707              		.loc 1 492 0
 708 00da 0122     		movs	r2, #1
 709 00dc 174B     		ldr	r3, .L39+76
 710 00de 1A70     		strb	r2, [r3]
 493:Generated_Source\PSoC5/cyfitter_cfg.c **** 
 494:Generated_Source\PSoC5/cyfitter_cfg.c **** 	/* Perform basic analog initialization to defaults */
 495:Generated_Source\PSoC5/cyfitter_cfg.c **** 	AnalogSetDefault();
 711              		.loc 1 495 0
 712 00e0 FFF7FEFF 		bl	AnalogSetDefault
 713              	.LVL64:
 496:Generated_Source\PSoC5/cyfitter_cfg.c **** 
 497:Generated_Source\PSoC5/cyfitter_cfg.c **** 	/* Configure alternate active mode */
 498:Generated_Source\PSoC5/cyfitter_cfg.c **** 	CYCONFIGCPY((void CYFAR *)CYDEV_PM_STBY_BASE, (const void CYFAR *)CYDEV_PM_ACT_BASE, 14u);
 714              		.loc 1 498 0
 715 00e4 0E22     		movs	r2, #14
 716 00e6 2146     		mov	r1, r4
 717 00e8 1548     		ldr	r0, .L39+80
 718 00ea FFF7FEFF 		bl	CYCONFIGCPY
 719              	.LVL65:
 720 00ee 38BD     		pop	{r3, r4, r5, pc}
 721              	.L40:
 722              		.align	2
 723              	.L39:
 724 00f0 E8460040 		.word	1073759976
 725 00f4 00000000 		.word	.LANCHOR0
 726 00f8 A0000048 		.word	1207959712
 727 00fc 03500140 		.word	1073827843
 728 0100 A0430040 		.word	1073759136
 729 0104 700C0048 		.word	1207962736
 730 0108 02510040 		.word	1073762562
 731 010c 780C0048 		.word	1207962744
 732 0110 C0510040 		.word	1073762752
 733 0114 840C0048 		.word	1207962756
 734 0118 F2510040 		.word	1073762802
 735 011c 8C0C0048 		.word	1207962764
 736 0120 12510040 		.word	1073762578
 737 0124 940C0048 		.word	1207962772
 738 0128 20510040 		.word	1073762592
 739 012c A00C0048 		.word	1207962784
 740 0130 32510040 		.word	1073762610
 741 0134 22430040 		.word	1073759010
 742 0138 00480040 		.word	1073760256
 743 013c 04000840 		.word	1074266116
 744 0140 B0430040 		.word	1073759152
 745              		.cfi_endproc
 746              	.LFE8:
 747              		.size	cyfitter_cfg, .-cyfitter_cfg
 748              		.section	.rodata
 749              		.align	2
 750              		.set	.LANCHOR0,. + 0
 751              		.type	cfg_memset_list.5024, %object
 752              		.size	cfg_memset_list.5024, 48
 753              	cfg_memset_list.5024:
 754 0000 C8490040 		.word	1073760712
ARM GAS  C:\Users\manuelfu\AppData\Local\Temp\ccya56jc.s 			page 24


 755 0004 1900     		.short	25
 756 0006 004F0040 		.4byte	1073762048
 757 000a 3000     		.short	48
 758 000c 40510040 		.word	1073762624
 759 0010 3000     		.short	48
 760 0012 00000140 		.4byte	1073807360
 761 0016 0010     		.short	4096
 762 0018 00140140 		.word	1073812480
 763 001c 0008     		.short	2048
 764 001e 00400140 		.4byte	1073823744
 765 0022 000A     		.short	2560
 766 0024 004C0140 		.word	1073826816
 767 0028 0002     		.short	512
 768 002a 00500140 		.4byte	1073827840
 769 002e 2000     		.short	32
 770              		.type	cfg_memcpy_list.5025, %object
 771              		.size	cfg_memcpy_list.5025, 10
 772              	cfg_memcpy_list.5025:
 773 0030 60520040 		.word	1073762912
 774 0034 680C0048 		.word	1207962728
 775 0038 0600     		.short	6
 776              		.text
 777              	.Letext0:
 778              		.file 2 "c:\\program files (x86)\\cypress\\psoc creator\\4.2\\psoc creator\\import\\gnu\\arm\\5.4.
 779              		.file 3 "Generated_Source\\PSoC5\\cytypes.h"
 780              		.file 4 "Generated_Source\\PSoC5\\CyLib.h"