ARM GAS  C:\Users\manuelfu\AppData\Local\Temp\ccFuRMvj.s 			page 1


   1              		.syntax unified
   2              		.cpu cortex-m3
   3              		.fpu softvfp
   4              		.eabi_attribute 20, 1
   5              		.eabi_attribute 21, 1
   6              		.eabi_attribute 23, 3
   7              		.eabi_attribute 24, 1
   8              		.eabi_attribute 25, 1
   9              		.eabi_attribute 26, 1
  10              		.eabi_attribute 30, 1
  11              		.eabi_attribute 34, 1
  12              		.eabi_attribute 18, 4
  13              		.thumb
  14              		.syntax unified
  15              		.file	"IR.c"
  16              		.text
  17              	.Ltext0:
  18              		.cfi_sections	.debug_frame
  19              		.section	.text.IR_capture_isr,"ax",%progbits
  20              		.align	2
  21              		.global	IR_capture_isr
  22              		.thumb
  23              		.thumb_func
  24              		.type	IR_capture_isr, %function
  25              	IR_capture_isr:
  26              	.LFB63:
  27              		.file 1 "ZumoLibrary\\IR.c"
   1:ZumoLibrary/IR.c **** /**
   2:ZumoLibrary/IR.c ****  * @file IR.c
   3:ZumoLibrary/IR.c ****  * @brief Basic methods for operating IR receiver. For more details, please refer to IR.h file. 
   4:ZumoLibrary/IR.c ****  * @details part number: TSOP-2236
   5:ZumoLibrary/IR.c **** */
   6:ZumoLibrary/IR.c **** #include "project.h"
   7:ZumoLibrary/IR.c **** #include "IR.h"
   8:ZumoLibrary/IR.c **** 
   9:ZumoLibrary/IR.c **** #define IRB_SIZE 10 /* size in power of 2 */
  10:ZumoLibrary/IR.c **** #define IRB_MASK (0xFFFFFFFF >> (32 - IRB_SIZE))
  11:ZumoLibrary/IR.c **** 
  12:ZumoLibrary/IR.c **** 
  13:ZumoLibrary/IR.c **** struct ir_buffer {
  14:ZumoLibrary/IR.c ****     uint32_t data[1 << IRB_SIZE];
  15:ZumoLibrary/IR.c ****     uint32_t head;
  16:ZumoLibrary/IR.c ****     uint32_t tail;
  17:ZumoLibrary/IR.c **** };
  18:ZumoLibrary/IR.c **** 
  19:ZumoLibrary/IR.c **** volatile struct ir_buffer irb;
  20:ZumoLibrary/IR.c **** 
  21:ZumoLibrary/IR.c **** CY_ISR(IR_capture_isr)
  22:ZumoLibrary/IR.c **** {
  28              		.loc 1 22 0
  29              		.cfi_startproc
  30              		@ args = 0, pretend = 0, frame = 0
  31              		@ frame_needed = 0, uses_anonymous_args = 0
  32 0000 10B5     		push	{r4, lr}
  33              		.cfi_def_cfa_offset 8
  34              		.cfi_offset 4, -8
  35              		.cfi_offset 14, -4
ARM GAS  C:\Users\manuelfu\AppData\Local\Temp\ccFuRMvj.s 			page 2


  23:ZumoLibrary/IR.c ****     static uint32_t old;
  24:ZumoLibrary/IR.c ****     uint32_t status = Timer_IR_ReadStatusRegister();
  36              		.loc 1 24 0
  37 0002 FFF7FEFF 		bl	Timer_IR_ReadStatusRegister
  38              	.LVL0:
  25:ZumoLibrary/IR.c ****     if(status & Timer_IR_STATUS_CAPTURE) {
  39              		.loc 1 25 0
  40 0006 10F0020F 		tst	r0, #2
  41 000a 17D0     		beq	.L1
  42              	.LBB2:
  26:ZumoLibrary/IR.c ****         uint32_t capture = Timer_IR_ReadCapture();
  43              		.loc 1 26 0
  44 000c FFF7FEFF 		bl	Timer_IR_ReadCapture
  45              	.LVL1:
  27:ZumoLibrary/IR.c ****         uint32_t value  = (old - capture) & 0xFFFFFFUL;
  46              		.loc 1 27 0
  47 0010 0B4B     		ldr	r3, .L5
  48 0012 1C68     		ldr	r4, [r3]
  49 0014 241A     		subs	r4, r4, r0
  50 0016 24F07F44 		bic	r4, r4, #-16777216
  51              	.LVL2:
  28:ZumoLibrary/IR.c ****         old = capture;
  52              		.loc 1 28 0
  53 001a 1860     		str	r0, [r3]
  29:ZumoLibrary/IR.c ****         //Pin_1_Write(IR_receiver_Read()); // for debugging with scope
  30:ZumoLibrary/IR.c ****         if(IR_receiver_Read()==0) { // signal was low --> we captured falling edge
  54              		.loc 1 30 0
  55 001c FFF7FEFF 		bl	IR_receiver_Read
  56              	.LVL3:
  57 0020 08B9     		cbnz	r0, .L3
  31:ZumoLibrary/IR.c ****             value |= IR_SIGNAL_HIGH;
  58              		.loc 1 31 0
  59 0022 44F00044 		orr	r4, r4, #-2147483648
  60              	.LVL4:
  61              	.L3:
  32:ZumoLibrary/IR.c ****         }
  33:ZumoLibrary/IR.c ****         irb.data[irb.head] = value;
  62              		.loc 1 33 0
  63 0026 074B     		ldr	r3, .L5+4
  64 0028 03F58052 		add	r2, r3, #4096
  65 002c 1168     		ldr	r1, [r2]
  66 002e 43F82140 		str	r4, [r3, r1, lsl #2]
  34:ZumoLibrary/IR.c ****         irb.head = (irb.head + 1) & IRB_MASK;
  67              		.loc 1 34 0
  68 0032 1368     		ldr	r3, [r2]
  69 0034 0133     		adds	r3, r3, #1
  70 0036 C3F30903 		ubfx	r3, r3, #0, #10
  71 003a 1360     		str	r3, [r2]
  72              	.LVL5:
  73              	.L1:
  74 003c 10BD     		pop	{r4, pc}
  75              	.L6:
  76 003e 00BF     		.align	2
  77              	.L5:
  78 0040 00000000 		.word	.LANCHOR0
  79 0044 00000000 		.word	irb
  80              	.LBE2:
ARM GAS  C:\Users\manuelfu\AppData\Local\Temp\ccFuRMvj.s 			page 3


  81              		.cfi_endproc
  82              	.LFE63:
  83              		.size	IR_capture_isr, .-IR_capture_isr
  84              		.section	.text.IR_get,"ax",%progbits
  85              		.align	2
  86              		.global	IR_get
  87              		.thumb
  88              		.thumb_func
  89              		.type	IR_get, %function
  90              	IR_get:
  91              	.LFB64:
  35:ZumoLibrary/IR.c ****     }
  36:ZumoLibrary/IR.c **** }
  37:ZumoLibrary/IR.c **** 
  38:ZumoLibrary/IR.c **** bool IR_get(uint32_t *value) {
  92              		.loc 1 38 0
  93              		.cfi_startproc
  94              		@ args = 0, pretend = 0, frame = 0
  95              		@ frame_needed = 0, uses_anonymous_args = 0
  96              		@ link register save eliminated.
  97              	.LVL6:
  39:ZumoLibrary/IR.c ****     if(irb.head != irb.tail) {
  98              		.loc 1 39 0
  99 0000 0B4B     		ldr	r3, .L10
 100 0002 03F58052 		add	r2, r3, #4096
 101 0006 1268     		ldr	r2, [r2]
 102 0008 41F20401 		movw	r1, #4100
 103 000c 5B58     		ldr	r3, [r3, r1]
 104 000e 9A42     		cmp	r2, r3
 105 0010 0BD0     		beq	.L9
  40:ZumoLibrary/IR.c ****         *value = irb.data[irb.tail];
 106              		.loc 1 40 0
 107 0012 074A     		ldr	r2, .L10
 108 0014 5358     		ldr	r3, [r2, r1]
 109 0016 52F82330 		ldr	r3, [r2, r3, lsl #2]
 110 001a 0360     		str	r3, [r0]
  41:ZumoLibrary/IR.c ****         irb.tail = (irb.tail + 1) & IRB_MASK;
 111              		.loc 1 41 0
 112 001c 5358     		ldr	r3, [r2, r1]
 113 001e 0133     		adds	r3, r3, #1
 114 0020 C3F30903 		ubfx	r3, r3, #0, #10
 115 0024 5350     		str	r3, [r2, r1]
  42:ZumoLibrary/IR.c ****         return true;
 116              		.loc 1 42 0
 117 0026 0120     		movs	r0, #1
 118              	.LVL7:
 119 0028 7047     		bx	lr
 120              	.LVL8:
 121              	.L9:
  43:ZumoLibrary/IR.c ****     }
  44:ZumoLibrary/IR.c ****     return false;
 122              		.loc 1 44 0
 123 002a 0020     		movs	r0, #0
 124              	.LVL9:
  45:ZumoLibrary/IR.c **** }
 125              		.loc 1 45 0
 126 002c 7047     		bx	lr
ARM GAS  C:\Users\manuelfu\AppData\Local\Temp\ccFuRMvj.s 			page 4


 127              	.L11:
 128 002e 00BF     		.align	2
 129              	.L10:
 130 0030 00000000 		.word	irb
 131              		.cfi_endproc
 132              	.LFE64:
 133              		.size	IR_get, .-IR_get
 134              		.section	.text.IR_flush,"ax",%progbits
 135              		.align	2
 136              		.global	IR_flush
 137              		.thumb
 138              		.thumb_func
 139              		.type	IR_flush, %function
 140              	IR_flush:
 141              	.LFB65:
  46:ZumoLibrary/IR.c **** 
  47:ZumoLibrary/IR.c **** void IR_flush(void)
  48:ZumoLibrary/IR.c **** {
 142              		.loc 1 48 0
 143              		.cfi_startproc
 144              		@ args = 0, pretend = 0, frame = 8
 145              		@ frame_needed = 0, uses_anonymous_args = 0
 146 0000 00B5     		push	{lr}
 147              		.cfi_def_cfa_offset 4
 148              		.cfi_offset 14, -4
 149 0002 83B0     		sub	sp, sp, #12
 150              		.cfi_def_cfa_offset 16
 151              	.L13:
  49:ZumoLibrary/IR.c ****     uint32_t tmp;
  50:ZumoLibrary/IR.c ****     while(IR_get(&tmp)); // flush IR rcv buffer
 152              		.loc 1 50 0 discriminator 1
 153 0004 01A8     		add	r0, sp, #4
 154 0006 FFF7FEFF 		bl	IR_get
 155              	.LVL10:
 156 000a 0028     		cmp	r0, #0
 157 000c FAD1     		bne	.L13
  51:ZumoLibrary/IR.c **** }
 158              		.loc 1 51 0
 159 000e 03B0     		add	sp, sp, #12
 160              		.cfi_def_cfa_offset 4
 161              		@ sp needed
 162 0010 5DF804FB 		ldr	pc, [sp], #4
 163              		.cfi_endproc
 164              	.LFE65:
 165              		.size	IR_flush, .-IR_flush
 166              		.section	.text.IR_wait,"ax",%progbits
 167              		.align	2
 168              		.global	IR_wait
 169              		.thumb
 170              		.thumb_func
 171              		.type	IR_wait, %function
 172              	IR_wait:
 173              	.LFB66:
  52:ZumoLibrary/IR.c **** 
  53:ZumoLibrary/IR.c **** 
  54:ZumoLibrary/IR.c **** void IR_wait(void)
  55:ZumoLibrary/IR.c **** {
ARM GAS  C:\Users\manuelfu\AppData\Local\Temp\ccFuRMvj.s 			page 5


 174              		.loc 1 55 0
 175              		.cfi_startproc
 176              		@ args = 0, pretend = 0, frame = 8
 177              		@ frame_needed = 0, uses_anonymous_args = 0
 178 0000 00B5     		push	{lr}
 179              		.cfi_def_cfa_offset 4
 180              		.cfi_offset 14, -4
 181 0002 83B0     		sub	sp, sp, #12
 182              		.cfi_def_cfa_offset 16
  56:ZumoLibrary/IR.c ****     IR_flush();
 183              		.loc 1 56 0
 184 0004 FFF7FEFF 		bl	IR_flush
 185              	.LVL11:
 186              	.L18:
 187              	.LBB3:
  57:ZumoLibrary/IR.c **** 
  58:ZumoLibrary/IR.c ****     while(true) {
  59:ZumoLibrary/IR.c ****         uint32_t tmp;
  60:ZumoLibrary/IR.c ****         if(IR_get(&tmp) && (tmp & IR_SIGNAL_HIGH)) {
 188              		.loc 1 60 0
 189 0008 01A8     		add	r0, sp, #4
 190 000a FFF7FEFF 		bl	IR_get
 191              	.LVL12:
 192 000e 0028     		cmp	r0, #0
 193 0010 FAD0     		beq	.L18
 194              		.loc 1 60 0 is_stmt 0 discriminator 1
 195 0012 019B     		ldr	r3, [sp, #4]
 196 0014 002B     		cmp	r3, #0
 197 0016 F7DA     		bge	.L18
  61:ZumoLibrary/IR.c ****             tmp &= IR_SIGNAL_MASK;
 198              		.loc 1 61 0 is_stmt 1
 199 0018 23F00043 		bic	r3, r3, #-2147483648
 200 001c 0193     		str	r3, [sp, #4]
  62:ZumoLibrary/IR.c ****             if(tmp > IR_LOWER_LIMIT && tmp < IR_UPPER_LIMIT) {
 201              		.loc 1 62 0
 202 001e A3F2E933 		subw	r3, r3, #1001
 203 0022 40F2E632 		movw	r2, #998
 204 0026 9342     		cmp	r3, r2
 205 0028 EED8     		bhi	.L18
 206              	.LBE3:
  63:ZumoLibrary/IR.c ****                 break;
  64:ZumoLibrary/IR.c ****             }
  65:ZumoLibrary/IR.c ****         }
  66:ZumoLibrary/IR.c ****     }
  67:ZumoLibrary/IR.c **** }    
 207              		.loc 1 67 0
 208 002a 03B0     		add	sp, sp, #12
 209              		.cfi_def_cfa_offset 4
 210              		@ sp needed
 211 002c 5DF804FB 		ldr	pc, [sp], #4
 212              		.cfi_endproc
 213              	.LFE66:
 214              		.size	IR_wait, .-IR_wait
 215              		.section	.text.IR_Start,"ax",%progbits
 216              		.align	2
 217              		.global	IR_Start
 218              		.thumb
ARM GAS  C:\Users\manuelfu\AppData\Local\Temp\ccFuRMvj.s 			page 6


 219              		.thumb_func
 220              		.type	IR_Start, %function
 221              	IR_Start:
 222              	.LFB67:
  68:ZumoLibrary/IR.c **** 
  69:ZumoLibrary/IR.c **** /**
  70:ZumoLibrary/IR.c **** * @brief    Starting Ultra Sonic Sensor
  71:ZumoLibrary/IR.c **** * @details  
  72:ZumoLibrary/IR.c **** */
  73:ZumoLibrary/IR.c **** void IR_Start(void)
  74:ZumoLibrary/IR.c **** {
 223              		.loc 1 74 0
 224              		.cfi_startproc
 225              		@ args = 0, pretend = 0, frame = 0
 226              		@ frame_needed = 0, uses_anonymous_args = 0
 227 0000 08B5     		push	{r3, lr}
 228              		.cfi_def_cfa_offset 8
 229              		.cfi_offset 3, -8
 230              		.cfi_offset 14, -4
  75:ZumoLibrary/IR.c ****     IR_isr_StartEx(IR_capture_isr);               // Start ultra sonic interrupt
 231              		.loc 1 75 0
 232 0002 0348     		ldr	r0, .L22
 233 0004 FFF7FEFF 		bl	IR_isr_StartEx
 234              	.LVL13:
  76:ZumoLibrary/IR.c ****     Timer_IR_Start();                                      // Start Timer
 235              		.loc 1 76 0
 236 0008 FFF7FEFF 		bl	Timer_IR_Start
 237              	.LVL14:
 238 000c 08BD     		pop	{r3, pc}
 239              	.L23:
 240 000e 00BF     		.align	2
 241              	.L22:
 242 0010 00000000 		.word	IR_capture_isr
 243              		.cfi_endproc
 244              	.LFE67:
 245              		.size	IR_Start, .-IR_Start
 246              		.comm	irb,4104,4
 247              		.bss
 248              		.align	2
 249              		.set	.LANCHOR0,. + 0
 250              		.type	old.6803, %object
 251              		.size	old.6803, 4
 252              	old.6803:
 253 0000 00000000 		.space	4
 254              		.text
 255              	.Letext0:
 256              		.file 2 "c:\\program files (x86)\\cypress\\psoc creator\\4.2\\psoc creator\\import\\gnu\\arm\\5.4.
 257              		.file 3 "c:\\program files (x86)\\cypress\\psoc creator\\4.2\\psoc creator\\import\\gnu\\arm\\5.4.
 258              		.file 4 "Generated_Source\\PSoC5/cytypes.h"
 259              		.file 5 "Generated_Source\\PSoC5/Timer_IR.h"
 260              		.file 6 "Generated_Source\\PSoC5/IR_receiver.h"
 261              		.file 7 "Generated_Source\\PSoC5/IR_isr.h"
 262              		.file 8 "Generated_Source\\PSoC5/core_cm3.h"