ARM GAS  C:\Users\manuelfu\AppData\Local\Temp\cch3WBPQ.s 			page 1


   1              		.syntax unified
   2              		.cpu cortex-m3
   3              		.fpu softvfp
   4              		.eabi_attribute 20, 1
   5              		.eabi_attribute 21, 1
   6              		.eabi_attribute 23, 3
   7              		.eabi_attribute 24, 1
   8              		.eabi_attribute 25, 1
   9              		.eabi_attribute 26, 1
  10              		.eabi_attribute 30, 1
  11              		.eabi_attribute 34, 1
  12              		.eabi_attribute 18, 4
  13              		.thumb
  14              		.syntax unified
  15              		.file	"main.c"
  16              		.text
  17              	.Ltext0:
  18              		.cfi_sections	.debug_frame
  19              		.global	__aeabi_i2f
  20              		.global	__aeabi_fdiv
  21              		.global	__aeabi_fmul
  22              		.global	__aeabi_f2d
  23              		.global	__aeabi_dcmplt
  24              		.section	.text.main,"ax",%progbits
  25              		.align	2
  26              		.global	main
  27              		.thumb
  28              		.thumb_func
  29              		.type	main, %function
  30              	main:
  31              	.LFB80:
  32              		.file 1 "main.c"
   1:main.c        **** /**
   2:main.c        **** * @mainpage ZumoBot Project
   3:main.c        **** * @brief    You can make your own ZumoBot with various sensors.
   4:main.c        **** * @details  <br><br>
   5:main.c        ****     <p>
   6:main.c        ****     <B>General</B><br>
   7:main.c        ****     You will use Pololu Zumo Shields for your robot project with CY8CKIT-059(PSoC 5LP) from Cypress
   8:main.c        ****     library has basic methods of various sensors and communications so that you can make what you w
   9:main.c        ****     <br><br>
  10:main.c        ****     </p>
  11:main.c        ****     
  12:main.c        ****     <p>
  13:main.c        ****     <B>Sensors</B><br>
  14:main.c        ****     &nbsp;Included: <br>
  15:main.c        ****         &nbsp;&nbsp;&nbsp;&nbsp;LSM303D: Accelerometer & Magnetometer<br>
  16:main.c        ****         &nbsp;&nbsp;&nbsp;&nbsp;L3GD20H: Gyroscope<br>
  17:main.c        ****         &nbsp;&nbsp;&nbsp;&nbsp;Reflectance sensor<br>
  18:main.c        ****         &nbsp;&nbsp;&nbsp;&nbsp;Motors
  19:main.c        ****     &nbsp;Wii nunchuck<br>
  20:main.c        ****     &nbsp;TSOP-2236: IR Receiver<br>
  21:main.c        ****     &nbsp;HC-SR04: Ultrasonic sensor<br>
  22:main.c        ****     &nbsp;APDS-9301: Ambient light sensor<br>
  23:main.c        ****     &nbsp;IR LED <br><br><br>
  24:main.c        ****     </p>
  25:main.c        ****     
ARM GAS  C:\Users\manuelfu\AppData\Local\Temp\cch3WBPQ.s 			page 2


  26:main.c        ****     <p>
  27:main.c        ****     <B>Communication</B><br>
  28:main.c        ****     I2C, UART, Serial<br>
  29:main.c        ****     </p>
  30:main.c        **** */
  31:main.c        **** 
  32:main.c        **** #include <project.h>
  33:main.c        **** #include <stdio.h>
  34:main.c        **** #include "Systick.h"
  35:main.c        **** #include "Motor.h"
  36:main.c        **** #include "Ultra.h"
  37:main.c        **** #include "Nunchuk.h"
  38:main.c        **** #include "Reflectance.h"
  39:main.c        **** #include "I2C_made.h"
  40:main.c        **** #include "Gyro.h"
  41:main.c        **** #include "Accel_magnet.h"
  42:main.c        **** #include "IR.h"
  43:main.c        **** #include "Ambient.h"
  44:main.c        **** #include "Beep.h"
  45:main.c        **** #include <time.h>
  46:main.c        **** #include <sys/time.h>
  47:main.c        **** #include "music.h"
  48:main.c        **** #include "custom_motor.h"
  49:main.c        **** #include "drive.h"
  50:main.c        **** 
  51:main.c        **** int rread(void);
  52:main.c        **** 
  53:main.c        **** /**
  54:main.c        ****  * @file    main.c
  55:main.c        ****  * @brief   
  56:main.c        ****  * @details  ** Enable global interrupt since Zumo library uses interrupts. **<br>&nbsp;&nbsp;&nbsp
  57:main.c        **** */
  58:main.c        **** 
  59:main.c        **** #if 1
  60:main.c        **** //battery level//
  61:main.c        **** int main()
  62:main.c        **** {
  33              		.loc 1 62 0
  34              		.cfi_startproc
  35              		@ args = 0, pretend = 0, frame = 240
  36              		@ frame_needed = 0, uses_anonymous_args = 0
  37 0000 2DE9F043 		push	{r4, r5, r6, r7, r8, r9, lr}
  38              		.cfi_def_cfa_offset 28
  39              		.cfi_offset 4, -28
  40              		.cfi_offset 5, -24
  41              		.cfi_offset 6, -20
  42              		.cfi_offset 7, -16
  43              		.cfi_offset 8, -12
  44              		.cfi_offset 9, -8
  45              		.cfi_offset 14, -4
  46 0004 BDB0     		sub	sp, sp, #244
  47              		.cfi_def_cfa_offset 272
  48              	.LVL0:
  63:main.c        ****     bool lighton = false;
  64:main.c        ****     CyGlobalIntEnable; 
  49              		.loc 1 64 0
  50              		.syntax unified
ARM GAS  C:\Users\manuelfu\AppData\Local\Temp\cch3WBPQ.s 			page 3


  51              	@ 64 "main.c" 1
  52 0006 62B6     		CPSIE   i
  53              	@ 0 "" 2
  65:main.c        ****     UART_1_Start();
  54              		.loc 1 65 0
  55              		.thumb
  56              		.syntax unified
  57 0008 FFF7FEFF 		bl	UART_1_Start
  58              	.LVL1:
  66:main.c        ****     Systick_Start();
  59              		.loc 1 66 0
  60 000c FFF7FEFF 		bl	Systick_Start
  61              	.LVL2:
  67:main.c        ****     
  68:main.c        ****     ADC_Battery_Start();        
  62              		.loc 1 68 0
  63 0010 FFF7FEFF 		bl	ADC_Battery_Start
  64              	.LVL3:
  69:main.c        **** 
  70:main.c        ****     uint16 adcresult =0;
  71:main.c        ****     float volts = 0.0;
  72:main.c        ****     const float divider_ratio = 1.5f;
  73:main.c        ****     const float adc_max_voltage = 5.0f;
  74:main.c        ****     const float bits_max = 4095.0f;
  75:main.c        **** 
  76:main.c        ****     printf("\nBoot\n");
  65              		.loc 1 76 0
  66 0014 6448     		ldr	r0, .L8+8
  67 0016 FFF7FEFF 		bl	puts
  68              	.LVL4:
  77:main.c        ****     
  78:main.c        ****     struct sensors_ data;
  79:main.c        ****     
  80:main.c        ****  /*
  81:main.c        ****     play_music("2 C D D e F F e D C b b C D .D -C oC", 300);
  82:main.c        ****     play_music("3 E =EeEeEBDC A =S 2 =CE 3 =A B =S 2 =E 3 =aB C 2 E", 500);   
  83:main.c        **** 
  84:main.c        ****     play_music_with_base("4 CACBCACBCACBCADB CACBCACBCACBCADB CACBCACBCACBCADB CACBCACBCACBCADB", 
  85:main.c        ****                          "3 S C CS CS C CS C CS CS C CS  A AS AS A AS A AS AS A AS  F FS FS F FS F 
  86:main.c        **** 
  87:main.c        **** */
  88:main.c        ****    
  89:main.c        ****     //play_music("1 A A A A 0-.F1 =C A 0-.F1 =C A", 500);
  90:main.c        ****      
  91:main.c        ****     //play_music_with_base("2 -.A =S -.A =S -.A =S -.A =S 1-.F2 =C A 1-.F2 =C oA"
  92:main.c        ****   //      , "1 A A A A a A a oA", 500);
  93:main.c        ****     
  94:main.c        ****     BatteryLed_Write(0); // Switch led off 
  69              		.loc 1 94 0
  70 001a 0020     		movs	r0, #0
  71 001c FFF7FEFF 		bl	BatteryLed_Write
  72              	.LVL5:
  95:main.c        ****     //uint8 button;
  96:main.c        ****     //button = SW1_Read(); // read SW1 on pSoC board
  97:main.c        ****     // SW1_Read() returns zero when button is pressed
  98:main.c        ****     // SW1_Read() returns one when button is not pressed
  99:main.c        ****     
ARM GAS  C:\Users\manuelfu\AppData\Local\Temp\cch3WBPQ.s 			page 4


 100:main.c        ****     DriveState dstate;
 101:main.c        ****     
 102:main.c        ****     /*
 103:main.c        ****     float lCoefficients[NCOEFF] =
 104:main.c        ****     {
 105:main.c        ****         1, 0.8, 2, //r1, r2, r3
 106:main.c        ****         -1, -0.8, -2, //l1, l2, l3
 107:main.c        ****         0, 0.0, 0, //derivatives r1, r2, r3
 108:main.c        ****         -25, 0, 0, //derivatives l1, l2, l3
 109:main.c        ****         0, 0, 0, //integrals r1, r2, r3
 110:main.c        ****         0.001, 0, 0 //integrals l1, l2, l3
 111:main.c        ****     };
 112:main.c        ****     
 113:main.c        ****     float rCoefficients[NCOEFF] =
 114:main.c        ****     {
 115:main.c        ****         -1, -0.8, -2, //r1, r2, r3
 116:main.c        ****         1, 0.8, 2, //l1, l2, l3
 117:main.c        ****         -25, 0, 0, //derivatives r1, r2, r3
 118:main.c        ****         0, 0.00, 0,      //derivatives l1, l2, l3
 119:main.c        ****         0.001, 0, 0, //integrals r1, r2, r3
 120:main.c        ****         0, 0, 0 //integrals l1, l2, l3
 121:main.c        ****     };
 122:main.c        ****     */
 123:main.c        ****     
 124:main.c        **** float lCoefficients[NCOEFF] =
  73              		.loc 1 124 0
  74 0020 624C     		ldr	r4, .L8+12
  75 0022 4825     		movs	r5, #72
  76 0024 2A46     		mov	r2, r5
  77 0026 2146     		mov	r1, r4
  78 0028 13A8     		add	r0, sp, #76
  79 002a FFF7FEFF 		bl	memcpy
  80              	.LVL6:
 125:main.c        ****     {
 126:main.c        ****         1, 0.8, 2, //r1, r2, r3
 127:main.c        ****         0.98, 0.7, -2, //l1, l2, l3
 128:main.c        ****         0, 0, 0, //derivatives r1, r2, r3
 129:main.c        ****         0, 0, 0, //derivatives l1, l2, l3
 130:main.c        ****         0, 0, 0, //integrals r1, r2, r3
 131:main.c        ****         0, 0, 0 //integrals l1, l2, l3
 132:main.c        ****     };
 133:main.c        ****     
 134:main.c        ****     float rCoefficients[NCOEFF] =
  81              		.loc 1 134 0
  82 002e 2A46     		mov	r2, r5
  83 0030 6119     		adds	r1, r4, r5
  84 0032 01A8     		add	r0, sp, #4
  85 0034 FFF7FEFF 		bl	memcpy
  86              	.LVL7:
 135:main.c        ****     {
 136:main.c        ****         0.98, 0.7, -2, //r1, r2, r3
 137:main.c        ****         1, 0.8, 2, //l1, l2, l3
 138:main.c        ****         0, 0, 0, //derivatives r1, r2, r3
 139:main.c        ****         0, 0, 0, //derivatives l1, l2, l3
 140:main.c        ****         0, 0, 0, //integrals r1, r2, r3
 141:main.c        ****         0, 0, 0 //integrals l1, l2, l3
 142:main.c        ****     };
ARM GAS  C:\Users\manuelfu\AppData\Local\Temp\cch3WBPQ.s 			page 5


 143:main.c        ****     
 144:main.c        ****     
 145:main.c        ****     
 146:main.c        ****     driveStart(&dstate, 6000, 10000);
  87              		.loc 1 146 0
  88 0038 5D4A     		ldr	r2, .L8+16
  89 003a 5E49     		ldr	r1, .L8+20
  90 003c 25A8     		add	r0, sp, #148
  91 003e FFF7FEFF 		bl	driveStart
  92              	.LVL8:
 147:main.c        ****     //reflectance_start();
 148:main.c        ****     
 149:main.c        ****     int counter = 0;
  93              		.loc 1 149 0
  94 0042 0024     		movs	r4, #0
  63:main.c        ****     CyGlobalIntEnable; 
  95              		.loc 1 63 0
  96 0044 2746     		mov	r7, r4
  97              	.LVL9:
  98              	.L5:
 150:main.c        ****     
 151:main.c        ****     for(;;)
 152:main.c        ****     {
 153:main.c        ****         
 154:main.c        ****         ADC_Battery_StartConvert();
  99              		.loc 1 154 0
 100 0046 FFF7FEFF 		bl	ADC_Battery_StartConvert
 101              	.LVL10:
 155:main.c        ****         if(ADC_Battery_IsEndConversion(ADC_Battery_WAIT_FOR_RESULT)) {   // wait for get ADC conver
 102              		.loc 1 155 0
 103 004a 0020     		movs	r0, #0
 104 004c FFF7FEFF 		bl	ADC_Battery_IsEndConversion
 105              	.LVL11:
 106 0050 0028     		cmp	r0, #0
 107 0052 00F0A080 		beq	.L2
 156:main.c        ****             adcresult = ADC_Battery_GetResult16(); // get the ADC value (0 - 4095)
 108              		.loc 1 156 0
 109 0056 FFF7FEFF 		bl	ADC_Battery_GetResult16
 110              	.LVL12:
 111 005a 85B2     		uxth	r5, r0
 157:main.c        ****             // convert value to Volts
 158:main.c        ****             // you need to implement the conversion
 159:main.c        ****             
 160:main.c        ****             volts = (adcresult / bits_max) * (adc_max_voltage * divider_ratio);
 112              		.loc 1 160 0
 113 005c 2846     		mov	r0, r5
 114 005e FFF7FEFF 		bl	__aeabi_i2f
 115              	.LVL13:
 116 0062 5549     		ldr	r1, .L8+24
 117 0064 FFF7FEFF 		bl	__aeabi_fdiv
 118              	.LVL14:
 119 0068 5449     		ldr	r1, .L8+28
 120 006a FFF7FEFF 		bl	__aeabi_fmul
 121              	.LVL15:
 122 006e 0646     		mov	r6, r0
 123              	.LVL16:
 161:main.c        ****             
ARM GAS  C:\Users\manuelfu\AppData\Local\Temp\cch3WBPQ.s 			page 6


 162:main.c        ****             //reflectance_read(&data);
 163:main.c        ****             
 164:main.c        ****             driveFetchData(&dstate);
 124              		.loc 1 164 0
 125 0070 25A8     		add	r0, sp, #148
 126              	.LVL17:
 127 0072 FFF7FEFF 		bl	driveFetchData
 128              	.LVL18:
 165:main.c        ****             driveUpdateSpeed(&dstate, 0.6f, rCoefficients, lCoefficients);
 129              		.loc 1 165 0
 130 0076 13AB     		add	r3, sp, #76
 131 0078 01AA     		add	r2, sp, #4
 132 007a 5149     		ldr	r1, .L8+32
 133 007c 25A8     		add	r0, sp, #148
 134 007e FFF7FEFF 		bl	driveUpdateSpeed
 135              	.LVL19:
 166:main.c        ****             
 167:main.c        ****             if (counter % 10 == 0)
 136              		.loc 1 167 0
 137 0082 504B     		ldr	r3, .L8+36
 138 0084 83FB0432 		smull	r3, r2, r3, r4
 139 0088 E317     		asrs	r3, r4, #31
 140 008a C3EBA203 		rsb	r3, r3, r2, asr #2
 141 008e 03EB8303 		add	r3, r3, r3, lsl #2
 142 0092 5A00     		lsls	r2, r3, #1
 143 0094 9442     		cmp	r4, r2
 144 0096 02D1     		bne	.L3
 168:main.c        ****                 driveResetIntegral(&dstate);
 145              		.loc 1 168 0
 146 0098 25A8     		add	r0, sp, #148
 147 009a FFF7FEFF 		bl	driveResetIntegral
 148              	.LVL20:
 149              	.L3:
 169:main.c        ****                 
 170:main.c        ****             counter++;
 150              		.loc 1 170 0
 151 009e 0134     		adds	r4, r4, #1
 152              	.LVL21:
 171:main.c        ****             
 172:main.c        ****             printf("L1: %f\n", dstate.current.l1);
 153              		.loc 1 172 0
 154 00a0 2898     		ldr	r0, [sp, #160]	@ float
 155 00a2 FFF7FEFF 		bl	__aeabi_f2d
 156              	.LVL22:
 157 00a6 0246     		mov	r2, r0
 158 00a8 0B46     		mov	r3, r1
 159 00aa 4748     		ldr	r0, .L8+40
 160 00ac FFF7FEFF 		bl	printf
 161              	.LVL23:
 173:main.c        ****             printf("L2: %f\n", dstate.current.l2);
 162              		.loc 1 173 0
 163 00b0 2998     		ldr	r0, [sp, #164]	@ float
 164 00b2 FFF7FEFF 		bl	__aeabi_f2d
 165              	.LVL24:
 166 00b6 0246     		mov	r2, r0
 167 00b8 0B46     		mov	r3, r1
 168 00ba 4448     		ldr	r0, .L8+44
ARM GAS  C:\Users\manuelfu\AppData\Local\Temp\cch3WBPQ.s 			page 7


 169 00bc FFF7FEFF 		bl	printf
 170              	.LVL25:
 174:main.c        ****             printf("L3: %f\n", dstate.current.l3);
 171              		.loc 1 174 0
 172 00c0 2A98     		ldr	r0, [sp, #168]	@ float
 173 00c2 FFF7FEFF 		bl	__aeabi_f2d
 174              	.LVL26:
 175 00c6 0246     		mov	r2, r0
 176 00c8 0B46     		mov	r3, r1
 177 00ca 4148     		ldr	r0, .L8+48
 178 00cc FFF7FEFF 		bl	printf
 179              	.LVL27:
 175:main.c        ****             printf("R1: %f\n", dstate.current.r1);
 180              		.loc 1 175 0
 181 00d0 2598     		ldr	r0, [sp, #148]	@ float
 182 00d2 FFF7FEFF 		bl	__aeabi_f2d
 183              	.LVL28:
 184 00d6 0246     		mov	r2, r0
 185 00d8 0B46     		mov	r3, r1
 186 00da 3E48     		ldr	r0, .L8+52
 187 00dc FFF7FEFF 		bl	printf
 188              	.LVL29:
 176:main.c        ****             printf("R2: %f\n", dstate.current.r2);
 189              		.loc 1 176 0
 190 00e0 2698     		ldr	r0, [sp, #152]	@ float
 191 00e2 FFF7FEFF 		bl	__aeabi_f2d
 192              	.LVL30:
 193 00e6 0246     		mov	r2, r0
 194 00e8 0B46     		mov	r3, r1
 195 00ea 3B48     		ldr	r0, .L8+56
 196 00ec FFF7FEFF 		bl	printf
 197              	.LVL31:
 177:main.c        ****             printf("R3: %f\n", dstate.current.r3);
 198              		.loc 1 177 0
 199 00f0 2798     		ldr	r0, [sp, #156]	@ float
 200 00f2 FFF7FEFF 		bl	__aeabi_f2d
 201              	.LVL32:
 202 00f6 0246     		mov	r2, r0
 203 00f8 0B46     		mov	r3, r1
 204 00fa 3848     		ldr	r0, .L8+60
 205 00fc FFF7FEFF 		bl	printf
 206              	.LVL33:
 178:main.c        ****             
 179:main.c        ****             printf("DL1: %f\n", dstate.integral.l1);
 207              		.loc 1 179 0
 208 0100 3698     		ldr	r0, [sp, #216]	@ float
 209 0102 FFF7FEFF 		bl	__aeabi_f2d
 210              	.LVL34:
 211 0106 0246     		mov	r2, r0
 212 0108 0B46     		mov	r3, r1
 213 010a 3548     		ldr	r0, .L8+64
 214 010c FFF7FEFF 		bl	printf
 215              	.LVL35:
 180:main.c        ****             printf("DL2: %f\n", dstate.integral.l2);
 216              		.loc 1 180 0
 217 0110 3798     		ldr	r0, [sp, #220]	@ float
 218 0112 FFF7FEFF 		bl	__aeabi_f2d
ARM GAS  C:\Users\manuelfu\AppData\Local\Temp\cch3WBPQ.s 			page 8


 219              	.LVL36:
 220 0116 0246     		mov	r2, r0
 221 0118 0B46     		mov	r3, r1
 222 011a 3248     		ldr	r0, .L8+68
 223 011c FFF7FEFF 		bl	printf
 224              	.LVL37:
 181:main.c        ****             printf("DL3: %f\n", dstate.integral.l3);
 225              		.loc 1 181 0
 226 0120 3898     		ldr	r0, [sp, #224]	@ float
 227 0122 FFF7FEFF 		bl	__aeabi_f2d
 228              	.LVL38:
 229 0126 0246     		mov	r2, r0
 230 0128 0B46     		mov	r3, r1
 231 012a 2F48     		ldr	r0, .L8+72
 232 012c FFF7FEFF 		bl	printf
 233              	.LVL39:
 182:main.c        ****             printf("DR1: %f\n", dstate.integral.r1);
 234              		.loc 1 182 0
 235 0130 3398     		ldr	r0, [sp, #204]	@ float
 236 0132 FFF7FEFF 		bl	__aeabi_f2d
 237              	.LVL40:
 238 0136 0246     		mov	r2, r0
 239 0138 0B46     		mov	r3, r1
 240 013a 2C48     		ldr	r0, .L8+76
 241 013c FFF7FEFF 		bl	printf
 242              	.LVL41:
 183:main.c        ****             printf("DR2: %f\n", dstate.integral.r2);
 243              		.loc 1 183 0
 244 0140 3498     		ldr	r0, [sp, #208]	@ float
 245 0142 FFF7FEFF 		bl	__aeabi_f2d
 246              	.LVL42:
 247 0146 0246     		mov	r2, r0
 248 0148 0B46     		mov	r3, r1
 249 014a 2948     		ldr	r0, .L8+80
 250 014c FFF7FEFF 		bl	printf
 251              	.LVL43:
 184:main.c        ****             printf("DR3: %f\n", dstate.integral.r3);
 252              		.loc 1 184 0
 253 0150 3598     		ldr	r0, [sp, #212]	@ float
 254 0152 FFF7FEFF 		bl	__aeabi_f2d
 255              	.LVL44:
 256 0156 0246     		mov	r2, r0
 257 0158 0B46     		mov	r3, r1
 258 015a 2648     		ldr	r0, .L8+84
 259 015c FFF7FEFF 		bl	printf
 260              	.LVL45:
 185:main.c        ****             
 186:main.c        ****             // Print both ADC results and converted value
 187:main.c        ****             printf("%d %f\r\n",adcresult, volts);
 261              		.loc 1 187 0
 262 0160 3046     		mov	r0, r6
 263 0162 FFF7FEFF 		bl	__aeabi_f2d
 264              	.LVL46:
 265 0166 8046     		mov	r8, r0
 266 0168 8946     		mov	r9, r1
 267 016a 0246     		mov	r2, r0
 268 016c 0B46     		mov	r3, r1
ARM GAS  C:\Users\manuelfu\AppData\Local\Temp\cch3WBPQ.s 			page 9


 269 016e 2946     		mov	r1, r5
 270 0170 2148     		ldr	r0, .L8+88
 271 0172 FFF7FEFF 		bl	printf
 272              	.LVL47:
 188:main.c        ****             
 189:main.c        ****             if(volts<4.2)
 273              		.loc 1 189 0
 274 0176 0AA3     		adr	r3, .L8
 275 0178 D3E90023 		ldrd	r2, [r3]
 276 017c 4046     		mov	r0, r8
 277 017e 4946     		mov	r1, r9
 278 0180 FFF7FEFF 		bl	__aeabi_dcmplt
 279              	.LVL48:
 280 0184 38B1     		cbz	r0, .L2
 190:main.c        ****             {
 191:main.c        ****                 lighton = !lighton; 
 281              		.loc 1 191 0
 282 0186 87F00107 		eor	r7, r7, #1
 283              	.LVL49:
 192:main.c        ****                 BatteryLed_Write(lighton?1:0); // Switch led on
 284              		.loc 1 192 0
 285 018a 3846     		mov	r0, r7
 286 018c FFF7FEFF 		bl	BatteryLed_Write
 287              	.LVL50:
 193:main.c        ****                 ShieldLed_Write(lighton?1:0);
 288              		.loc 1 193 0
 289 0190 3846     		mov	r0, r7
 290 0192 FFF7FEFF 		bl	ShieldLed_Write
 291              	.LVL51:
 292              	.L2:
 194:main.c        ****                 //Beep(1000, 150);
 195:main.c        ****             }
 196:main.c        ****         }
 197:main.c        ****         CyDelay(20);
 293              		.loc 1 197 0
 294 0196 1420     		movs	r0, #20
 295 0198 FFF7FEFF 		bl	CyDelay
 296              	.LVL52:
 198:main.c        ****         
 199:main.c        ****        
 200:main.c        ****         
 201:main.c        ****     }
 297              		.loc 1 201 0
 298 019c 53E7     		b	.L5
 299              	.L9:
 300 019e 00BF     		.align	3
 301              	.L8:
 302 01a0 CDCCCCCC 		.word	-858993459
 303 01a4 CCCC1040 		.word	1074842828
 304 01a8 00000000 		.word	.LC2
 305 01ac 00000000 		.word	.LANCHOR0
 306 01b0 00401C46 		.word	1176256512
 307 01b4 0080BB45 		.word	1169915904
 308 01b8 00F07F45 		.word	1166012416
 309 01bc 0000F040 		.word	1089470464
 310 01c0 9A99193F 		.word	1058642330
 311 01c4 67666666 		.word	1717986919
ARM GAS  C:\Users\manuelfu\AppData\Local\Temp\cch3WBPQ.s 			page 10


 312 01c8 08000000 		.word	.LC3
 313 01cc 10000000 		.word	.LC4
 314 01d0 18000000 		.word	.LC5
 315 01d4 20000000 		.word	.LC6
 316 01d8 28000000 		.word	.LC7
 317 01dc 30000000 		.word	.LC8
 318 01e0 38000000 		.word	.LC9
 319 01e4 44000000 		.word	.LC10
 320 01e8 50000000 		.word	.LC11
 321 01ec 5C000000 		.word	.LC12
 322 01f0 68000000 		.word	.LC13
 323 01f4 74000000 		.word	.LC14
 324 01f8 80000000 		.word	.LC15
 325              		.cfi_endproc
 326              	.LFE80:
 327              		.size	main, .-main
 328              		.section	.rodata
 329              		.align	2
 330              		.set	.LANCHOR0,. + 0
 331              	.LC0:
 332 0000 0000803F 		.word	1065353216
 333 0004 CDCC4C3F 		.word	1061997773
 334 0008 00000040 		.word	1073741824
 335 000c 48E17A3F 		.word	1065017672
 336 0010 3333333F 		.word	1060320051
 337 0014 000000C0 		.word	-1073741824
 338 0018 00000000 		.word	0
 339 001c 00000000 		.word	0
 340 0020 00000000 		.word	0
 341 0024 00000000 		.word	0
 342 0028 00000000 		.word	0
 343 002c 00000000 		.word	0
 344 0030 00000000 		.word	0
 345 0034 00000000 		.word	0
 346 0038 00000000 		.word	0
 347 003c 00000000 		.word	0
 348 0040 00000000 		.word	0
 349 0044 00000000 		.word	0
 350              	.LC1:
 351 0048 48E17A3F 		.word	1065017672
 352 004c 3333333F 		.word	1060320051
 353 0050 000000C0 		.word	-1073741824
 354 0054 0000803F 		.word	1065353216
 355 0058 CDCC4C3F 		.word	1061997773
 356 005c 00000040 		.word	1073741824
 357 0060 00000000 		.word	0
 358 0064 00000000 		.word	0
 359 0068 00000000 		.word	0
 360 006c 00000000 		.word	0
 361 0070 00000000 		.word	0
 362 0074 00000000 		.word	0
 363 0078 00000000 		.word	0
 364 007c 00000000 		.word	0
 365 0080 00000000 		.word	0
 366 0084 00000000 		.word	0
 367 0088 00000000 		.word	0
 368 008c 00000000 		.word	0
ARM GAS  C:\Users\manuelfu\AppData\Local\Temp\cch3WBPQ.s 			page 11


 369              		.section	.rodata.str1.4,"aMS",%progbits,1
 370              		.align	2
 371              	.LC2:
 372 0000 0A426F6F 		.ascii	"\012Boot\000"
 372      7400
 373 0006 0000     		.space	2
 374              	.LC3:
 375 0008 4C313A20 		.ascii	"L1: %f\012\000"
 375      25660A00 
 376              	.LC4:
 377 0010 4C323A20 		.ascii	"L2: %f\012\000"
 377      25660A00 
 378              	.LC5:
 379 0018 4C333A20 		.ascii	"L3: %f\012\000"
 379      25660A00 
 380              	.LC6:
 381 0020 52313A20 		.ascii	"R1: %f\012\000"
 381      25660A00 
 382              	.LC7:
 383 0028 52323A20 		.ascii	"R2: %f\012\000"
 383      25660A00 
 384              	.LC8:
 385 0030 52333A20 		.ascii	"R3: %f\012\000"
 385      25660A00 
 386              	.LC9:
 387 0038 444C313A 		.ascii	"DL1: %f\012\000"
 387      2025660A 
 387      00
 388 0041 000000   		.space	3
 389              	.LC10:
 390 0044 444C323A 		.ascii	"DL2: %f\012\000"
 390      2025660A 
 390      00
 391 004d 000000   		.space	3
 392              	.LC11:
 393 0050 444C333A 		.ascii	"DL3: %f\012\000"
 393      2025660A 
 393      00
 394 0059 000000   		.space	3
 395              	.LC12:
 396 005c 4452313A 		.ascii	"DR1: %f\012\000"
 396      2025660A 
 396      00
 397 0065 000000   		.space	3
 398              	.LC13:
 399 0068 4452323A 		.ascii	"DR2: %f\012\000"
 399      2025660A 
 399      00
 400 0071 000000   		.space	3
 401              	.LC14:
 402 0074 4452333A 		.ascii	"DR3: %f\012\000"
 402      2025660A 
 402      00
 403 007d 000000   		.space	3
 404              	.LC15:
 405 0080 25642025 		.ascii	"%d %f\015\012\000"
 405      660D0A00 
ARM GAS  C:\Users\manuelfu\AppData\Local\Temp\cch3WBPQ.s 			page 12


 406              		.text
 407              	.Letext0:
 408              		.file 2 "c:\\program files (x86)\\cypress\\psoc creator\\4.2\\psoc creator\\import\\gnu\\arm\\5.4.
 409              		.file 3 "c:\\program files (x86)\\cypress\\psoc creator\\4.2\\psoc creator\\import\\gnu\\arm\\5.4.
 410              		.file 4 "Generated_Source\\PSoC5/cytypes.h"
 411              		.file 5 ".\\ZumoLibrary/Reflectance.h"
 412              		.file 6 "drive.h"
 413              		.file 7 "Generated_Source\\PSoC5/UART_1.h"
 414              		.file 8 ".\\ZumoLibrary/Systick.h"
 415              		.file 9 "Generated_Source\\PSoC5/ADC_Battery.h"
 416              		.file 10 "Generated_Source\\PSoC5/BatteryLed.h"
 417              		.file 11 "c:\\program files (x86)\\cypress\\psoc creator\\4.2\\psoc creator\\import\\gnu\\arm\\5.4
 418              		.file 12 "Generated_Source\\PSoC5/ShieldLed.h"
 419              		.file 13 "Generated_Source\\PSoC5/CyLib.h"
 420              		.file 14 "Generated_Source\\PSoC5/core_cm3.h"
 421              		.file 15 "<built-in>"