ARM GAS  C:\Users\manuelfu\AppData\Local\Temp\ccM8kfjR.s 			page 1


   1              		.syntax unified
   2              		.cpu cortex-m3
   3              		.fpu softvfp
   4              		.eabi_attribute 20, 1
   5              		.eabi_attribute 21, 1
   6              		.eabi_attribute 23, 3
   7              		.eabi_attribute 24, 1
   8              		.eabi_attribute 25, 1
   9              		.eabi_attribute 26, 1
  10              		.eabi_attribute 30, 1
  11              		.eabi_attribute 34, 1
  12              		.eabi_attribute 18, 4
  13              		.thumb
  14              		.syntax unified
  15              		.file	"Reflectance.c"
  16              		.text
  17              	.Ltext0:
  18              		.cfi_sections	.debug_frame
  19              		.section	.text.reflectance_handler,"ax",%progbits
  20              		.align	2
  21              		.global	reflectance_handler
  22              		.thumb
  23              		.thumb_func
  24              		.type	reflectance_handler, %function
  25              	reflectance_handler:
  26              	.LFB64:
  27              		.file 1 "ZumoLibrary\\Reflectance.c"
   1:ZumoLibrary/Reflectance.c **** /**
   2:ZumoLibrary/Reflectance.c ****  * @file    Reflectance.c
   3:ZumoLibrary/Reflectance.c ****  * @brief   Basic methods for operating reflectance sensor. For more details, please refer to Refle
   4:ZumoLibrary/Reflectance.c ****  * @details included in Zumo shield
   5:ZumoLibrary/Reflectance.c **** */
   6:ZumoLibrary/Reflectance.c **** #include <stdio.h>
   7:ZumoLibrary/Reflectance.c **** #include <stdbool.h>
   8:ZumoLibrary/Reflectance.c **** #include "project.h"
   9:ZumoLibrary/Reflectance.c **** 
  10:ZumoLibrary/Reflectance.c **** #include "Reflectance.h"
  11:ZumoLibrary/Reflectance.c **** #include "Systick.h"
  12:ZumoLibrary/Reflectance.c **** 
  13:ZumoLibrary/Reflectance.c **** static volatile struct sensors_ sensors;
  14:ZumoLibrary/Reflectance.c **** static volatile struct sensors_  digital_sensor_value;
  15:ZumoLibrary/Reflectance.c **** static struct sensors_ threshold = { 10000, 10000, 10000, 10000, 10000, 10000};
  16:ZumoLibrary/Reflectance.c **** static volatile bool refl_init = false;
  17:ZumoLibrary/Reflectance.c **** 
  18:ZumoLibrary/Reflectance.c **** /**
  19:ZumoLibrary/Reflectance.c **** * @brief    Reflectance Sensor Interrupt Handler
  20:ZumoLibrary/Reflectance.c **** * @details  Measuring each sensors' time to recognition of white or black
  21:ZumoLibrary/Reflectance.c **** */
  22:ZumoLibrary/Reflectance.c **** 
  23:ZumoLibrary/Reflectance.c **** void reflectance_handler(void)
  24:ZumoLibrary/Reflectance.c **** {
  28              		.loc 1 24 0
  29              		.cfi_startproc
  30              		@ args = 0, pretend = 0, frame = 0
  31              		@ frame_needed = 0, uses_anonymous_args = 0
  32 0000 2DE9F843 		push	{r3, r4, r5, r6, r7, r8, r9, lr}
  33              		.cfi_def_cfa_offset 32
ARM GAS  C:\Users\manuelfu\AppData\Local\Temp\ccM8kfjR.s 			page 2


  34              		.cfi_offset 3, -32
  35              		.cfi_offset 4, -28
  36              		.cfi_offset 5, -24
  37              		.cfi_offset 6, -20
  38              		.cfi_offset 7, -16
  39              		.cfi_offset 8, -12
  40              		.cfi_offset 9, -8
  41              		.cfi_offset 14, -4
  25:ZumoLibrary/Reflectance.c ****     if(!refl_init) return;
  42              		.loc 1 25 0
  43 0004 6E4B     		ldr	r3, .L16
  44 0006 1B78     		ldrb	r3, [r3]	@ zero_extendqisi2
  45 0008 13F0FF0F 		tst	r3, #255
  46 000c 00F0D580 		beq	.L1
  26:ZumoLibrary/Reflectance.c ****     
  27:ZumoLibrary/Reflectance.c ****     uint32_t statusR1 = Timer_R1_ReadStatusRegister();
  47              		.loc 1 27 0
  48 0010 FFF7FEFF 		bl	Timer_R1_ReadStatusRegister
  49              	.LVL0:
  50 0014 0446     		mov	r4, r0
  51              	.LVL1:
  28:ZumoLibrary/Reflectance.c ****     uint32_t statusR2 = Timer_R2_ReadStatusRegister();
  52              		.loc 1 28 0
  53 0016 FFF7FEFF 		bl	Timer_R2_ReadStatusRegister
  54              	.LVL2:
  55 001a 8046     		mov	r8, r0
  56              	.LVL3:
  29:ZumoLibrary/Reflectance.c ****     uint32_t statusR3 = Timer_R3_ReadStatusRegister();
  57              		.loc 1 29 0
  58 001c FFF7FEFF 		bl	Timer_R3_ReadStatusRegister
  59              	.LVL4:
  60 0020 0646     		mov	r6, r0
  61              	.LVL5:
  30:ZumoLibrary/Reflectance.c ****     uint32_t statusL3 = Timer_L3_ReadStatusRegister();
  62              		.loc 1 30 0
  63 0022 FFF7FEFF 		bl	Timer_L3_ReadStatusRegister
  64              	.LVL6:
  65 0026 0546     		mov	r5, r0
  66              	.LVL7:
  31:ZumoLibrary/Reflectance.c ****     uint32_t statusL2 = Timer_L2_ReadStatusRegister();
  67              		.loc 1 31 0
  68 0028 FFF7FEFF 		bl	Timer_L2_ReadStatusRegister
  69              	.LVL8:
  70 002c 0746     		mov	r7, r0
  71              	.LVL9:
  32:ZumoLibrary/Reflectance.c ****     uint32_t statusL1 = Timer_L1_ReadStatusRegister();
  72              		.loc 1 32 0
  73 002e FFF7FEFF 		bl	Timer_L1_ReadStatusRegister
  74              	.LVL10:
  75 0032 8146     		mov	r9, r0
  76              	.LVL11:
  33:ZumoLibrary/Reflectance.c **** 
  34:ZumoLibrary/Reflectance.c ****     if(statusR1 & Timer_R1_STATUS_CAPTURE) {
  77              		.loc 1 34 0
  78 0034 14F0400F 		tst	r4, #64
  79 0038 09D0     		beq	.L3
  35:ZumoLibrary/Reflectance.c ****         sensors.r1 = Timer_R1_ReadPeriod() - Timer_R1_ReadCapture();
ARM GAS  C:\Users\manuelfu\AppData\Local\Temp\ccM8kfjR.s 			page 3


  80              		.loc 1 35 0
  81 003a FFF7FEFF 		bl	Timer_R1_ReadPeriod
  82              	.LVL12:
  83 003e 0446     		mov	r4, r0
  84              	.LVL13:
  85 0040 FFF7FEFF 		bl	Timer_R1_ReadCapture
  86              	.LVL14:
  87 0044 201A     		subs	r0, r4, r0
  88 0046 80B2     		uxth	r0, r0
  89 0048 5D4B     		ldr	r3, .L16
  90 004a 5881     		strh	r0, [r3, #10]	@ movhi
  91 004c 08E0     		b	.L4
  92              	.LVL15:
  93              	.L3:
  36:ZumoLibrary/Reflectance.c ****     }
  37:ZumoLibrary/Reflectance.c ****     else {
  38:ZumoLibrary/Reflectance.c ****         sensors.r1 = Timer_R1_ReadPeriod() - Timer_R1_ReadCounter();
  94              		.loc 1 38 0
  95 004e FFF7FEFF 		bl	Timer_R1_ReadPeriod
  96              	.LVL16:
  97 0052 0446     		mov	r4, r0
  98              	.LVL17:
  99 0054 FFF7FEFF 		bl	Timer_R1_ReadCounter
 100              	.LVL18:
 101 0058 201A     		subs	r0, r4, r0
 102 005a 80B2     		uxth	r0, r0
 103 005c 584B     		ldr	r3, .L16
 104 005e 5881     		strh	r0, [r3, #10]	@ movhi
 105              	.L4:
  39:ZumoLibrary/Reflectance.c ****     }
  40:ZumoLibrary/Reflectance.c ****     
  41:ZumoLibrary/Reflectance.c ****     if(statusL1 & Timer_L1_STATUS_CAPTURE) {
 106              		.loc 1 41 0
 107 0060 19F0400F 		tst	r9, #64
 108 0064 09D0     		beq	.L5
  42:ZumoLibrary/Reflectance.c ****         sensors.l1 = Timer_L1_ReadPeriod() - Timer_L1_ReadCapture();
 109              		.loc 1 42 0
 110 0066 FFF7FEFF 		bl	Timer_L1_ReadPeriod
 111              	.LVL19:
 112 006a 0446     		mov	r4, r0
 113 006c FFF7FEFF 		bl	Timer_L1_ReadCapture
 114              	.LVL20:
 115 0070 201A     		subs	r0, r4, r0
 116 0072 80B2     		uxth	r0, r0
 117 0074 524B     		ldr	r3, .L16
 118 0076 1881     		strh	r0, [r3, #8]	@ movhi
 119 0078 08E0     		b	.L6
 120              	.L5:
  43:ZumoLibrary/Reflectance.c ****     }
  44:ZumoLibrary/Reflectance.c ****     else {
  45:ZumoLibrary/Reflectance.c ****         sensors.l1 = Timer_L1_ReadPeriod() - Timer_L1_ReadCounter();
 121              		.loc 1 45 0
 122 007a FFF7FEFF 		bl	Timer_L1_ReadPeriod
 123              	.LVL21:
 124 007e 0446     		mov	r4, r0
 125 0080 FFF7FEFF 		bl	Timer_L1_ReadCounter
 126              	.LVL22:
ARM GAS  C:\Users\manuelfu\AppData\Local\Temp\ccM8kfjR.s 			page 4


 127 0084 201A     		subs	r0, r4, r0
 128 0086 80B2     		uxth	r0, r0
 129 0088 4D4B     		ldr	r3, .L16
 130 008a 1881     		strh	r0, [r3, #8]	@ movhi
 131              	.L6:
  46:ZumoLibrary/Reflectance.c ****     }
  47:ZumoLibrary/Reflectance.c **** 
  48:ZumoLibrary/Reflectance.c ****     if(statusR2 & Timer_R2_STATUS_CAPTURE) {
 132              		.loc 1 48 0
 133 008c 18F0020F 		tst	r8, #2
 134 0090 09D0     		beq	.L7
  49:ZumoLibrary/Reflectance.c ****         sensors.r2 = Timer_R2_ReadPeriod() - Timer_R2_ReadCapture();
 135              		.loc 1 49 0
 136 0092 FFF7FEFF 		bl	Timer_R2_ReadPeriod
 137              	.LVL23:
 138 0096 0446     		mov	r4, r0
 139 0098 FFF7FEFF 		bl	Timer_R2_ReadCapture
 140              	.LVL24:
 141 009c 201A     		subs	r0, r4, r0
 142 009e 80B2     		uxth	r0, r0
 143 00a0 474B     		ldr	r3, .L16
 144 00a2 9881     		strh	r0, [r3, #12]	@ movhi
 145 00a4 08E0     		b	.L8
 146              	.L7:
  50:ZumoLibrary/Reflectance.c ****     }
  51:ZumoLibrary/Reflectance.c ****     else {
  52:ZumoLibrary/Reflectance.c ****         sensors.r2 = Timer_R2_ReadPeriod() - Timer_R2_ReadCounter();
 147              		.loc 1 52 0
 148 00a6 FFF7FEFF 		bl	Timer_R2_ReadPeriod
 149              	.LVL25:
 150 00aa 0446     		mov	r4, r0
 151 00ac FFF7FEFF 		bl	Timer_R2_ReadCounter
 152              	.LVL26:
 153 00b0 201A     		subs	r0, r4, r0
 154 00b2 80B2     		uxth	r0, r0
 155 00b4 424B     		ldr	r3, .L16
 156 00b6 9881     		strh	r0, [r3, #12]	@ movhi
 157              	.L8:
  53:ZumoLibrary/Reflectance.c ****     }
  54:ZumoLibrary/Reflectance.c ****     
  55:ZumoLibrary/Reflectance.c ****     if(statusL2 & Timer_L2_STATUS_CAPTURE) {
 158              		.loc 1 55 0
 159 00b8 17F0020F 		tst	r7, #2
 160 00bc 09D0     		beq	.L9
  56:ZumoLibrary/Reflectance.c ****         sensors.l2 = Timer_L2_ReadPeriod() - Timer_L2_ReadCapture();
 161              		.loc 1 56 0
 162 00be FFF7FEFF 		bl	Timer_L2_ReadPeriod
 163              	.LVL27:
 164 00c2 0446     		mov	r4, r0
 165 00c4 FFF7FEFF 		bl	Timer_L2_ReadCapture
 166              	.LVL28:
 167 00c8 201A     		subs	r0, r4, r0
 168 00ca 80B2     		uxth	r0, r0
 169 00cc 3C4B     		ldr	r3, .L16
 170 00ce D880     		strh	r0, [r3, #6]	@ movhi
 171 00d0 08E0     		b	.L10
 172              	.L9:
ARM GAS  C:\Users\manuelfu\AppData\Local\Temp\ccM8kfjR.s 			page 5


  57:ZumoLibrary/Reflectance.c ****     }
  58:ZumoLibrary/Reflectance.c ****     else {
  59:ZumoLibrary/Reflectance.c ****         sensors.l2 = Timer_L2_ReadPeriod() - Timer_L2_ReadCounter();
 173              		.loc 1 59 0
 174 00d2 FFF7FEFF 		bl	Timer_L2_ReadPeriod
 175              	.LVL29:
 176 00d6 0446     		mov	r4, r0
 177 00d8 FFF7FEFF 		bl	Timer_L2_ReadCounter
 178              	.LVL30:
 179 00dc 201A     		subs	r0, r4, r0
 180 00de 80B2     		uxth	r0, r0
 181 00e0 374B     		ldr	r3, .L16
 182 00e2 D880     		strh	r0, [r3, #6]	@ movhi
 183              	.L10:
  60:ZumoLibrary/Reflectance.c ****     }
  61:ZumoLibrary/Reflectance.c ****     
  62:ZumoLibrary/Reflectance.c ****     if(statusR3 & Timer_R3_STATUS_CAPTURE) {
 184              		.loc 1 62 0
 185 00e4 16F0400F 		tst	r6, #64
 186 00e8 09D0     		beq	.L11
  63:ZumoLibrary/Reflectance.c ****         sensors.r3 = Timer_R3_ReadPeriod() - Timer_R3_ReadCapture();
 187              		.loc 1 63 0
 188 00ea FFF7FEFF 		bl	Timer_R3_ReadPeriod
 189              	.LVL31:
 190 00ee 0446     		mov	r4, r0
 191 00f0 FFF7FEFF 		bl	Timer_R3_ReadCapture
 192              	.LVL32:
 193 00f4 201A     		subs	r0, r4, r0
 194 00f6 80B2     		uxth	r0, r0
 195 00f8 314B     		ldr	r3, .L16
 196 00fa D881     		strh	r0, [r3, #14]	@ movhi
 197 00fc 08E0     		b	.L12
 198              	.L11:
  64:ZumoLibrary/Reflectance.c ****     }
  65:ZumoLibrary/Reflectance.c ****     else {
  66:ZumoLibrary/Reflectance.c ****         sensors.r3 = Timer_R3_ReadPeriod() - Timer_R3_ReadCounter();
 199              		.loc 1 66 0
 200 00fe FFF7FEFF 		bl	Timer_R3_ReadPeriod
 201              	.LVL33:
 202 0102 0446     		mov	r4, r0
 203 0104 FFF7FEFF 		bl	Timer_R3_ReadCounter
 204              	.LVL34:
 205 0108 201A     		subs	r0, r4, r0
 206 010a 80B2     		uxth	r0, r0
 207 010c 2C4B     		ldr	r3, .L16
 208 010e D881     		strh	r0, [r3, #14]	@ movhi
 209              	.L12:
  67:ZumoLibrary/Reflectance.c ****     }
  68:ZumoLibrary/Reflectance.c ****     
  69:ZumoLibrary/Reflectance.c ****     if(statusL3 & Timer_L3_STATUS_CAPTURE) {
 210              		.loc 1 69 0
 211 0110 15F0400F 		tst	r5, #64
 212 0114 09D0     		beq	.L13
  70:ZumoLibrary/Reflectance.c ****         sensors.l3 = Timer_L3_ReadPeriod() - Timer_L3_ReadCapture();
 213              		.loc 1 70 0
 214 0116 FFF7FEFF 		bl	Timer_L3_ReadPeriod
 215              	.LVL35:
ARM GAS  C:\Users\manuelfu\AppData\Local\Temp\ccM8kfjR.s 			page 6


 216 011a 0446     		mov	r4, r0
 217 011c FFF7FEFF 		bl	Timer_L3_ReadCapture
 218              	.LVL36:
 219 0120 201A     		subs	r0, r4, r0
 220 0122 80B2     		uxth	r0, r0
 221 0124 264B     		ldr	r3, .L16
 222 0126 9880     		strh	r0, [r3, #4]	@ movhi
 223 0128 08E0     		b	.L14
 224              	.L13:
  71:ZumoLibrary/Reflectance.c ****     }
  72:ZumoLibrary/Reflectance.c ****     else {
  73:ZumoLibrary/Reflectance.c ****         sensors.l3 = Timer_L3_ReadPeriod() - Timer_L3_ReadCounter();
 225              		.loc 1 73 0
 226 012a FFF7FEFF 		bl	Timer_L3_ReadPeriod
 227              	.LVL37:
 228 012e 0446     		mov	r4, r0
 229 0130 FFF7FEFF 		bl	Timer_L3_ReadCounter
 230              	.LVL38:
 231 0134 201A     		subs	r0, r4, r0
 232 0136 80B2     		uxth	r0, r0
 233 0138 214B     		ldr	r3, .L16
 234 013a 9880     		strh	r0, [r3, #4]	@ movhi
 235              	.L14:
  74:ZumoLibrary/Reflectance.c ****     }
  75:ZumoLibrary/Reflectance.c ****     
  76:ZumoLibrary/Reflectance.c ****     
  77:ZumoLibrary/Reflectance.c ****     Control_Reg_1_Write(1);
 236              		.loc 1 77 0
 237 013c 0120     		movs	r0, #1
 238 013e FFF7FEFF 		bl	Control_Reg_1_Write
 239              	.LVL39:
  78:ZumoLibrary/Reflectance.c ****     
  79:ZumoLibrary/Reflectance.c ****     R1_SetDriveMode(PIN_DM_STRONG);
 240              		.loc 1 79 0
 241 0142 0C20     		movs	r0, #12
 242 0144 FFF7FEFF 		bl	R1_SetDriveMode
 243              	.LVL40:
  80:ZumoLibrary/Reflectance.c ****     R1_Write(1);
 244              		.loc 1 80 0
 245 0148 0120     		movs	r0, #1
 246 014a FFF7FEFF 		bl	R1_Write
 247              	.LVL41:
  81:ZumoLibrary/Reflectance.c ****     R2_SetDriveMode(PIN_DM_STRONG);
 248              		.loc 1 81 0
 249 014e 0C20     		movs	r0, #12
 250 0150 FFF7FEFF 		bl	R2_SetDriveMode
 251              	.LVL42:
  82:ZumoLibrary/Reflectance.c ****     R2_Write(1);
 252              		.loc 1 82 0
 253 0154 0120     		movs	r0, #1
 254 0156 FFF7FEFF 		bl	R2_Write
 255              	.LVL43:
  83:ZumoLibrary/Reflectance.c ****     R3_SetDriveMode(PIN_DM_STRONG);
 256              		.loc 1 83 0
 257 015a 0C20     		movs	r0, #12
 258 015c FFF7FEFF 		bl	R3_SetDriveMode
 259              	.LVL44:
ARM GAS  C:\Users\manuelfu\AppData\Local\Temp\ccM8kfjR.s 			page 7


  84:ZumoLibrary/Reflectance.c ****     R3_Write(1);
 260              		.loc 1 84 0
 261 0160 0120     		movs	r0, #1
 262 0162 FFF7FEFF 		bl	R3_Write
 263              	.LVL45:
  85:ZumoLibrary/Reflectance.c ****     L3_SetDriveMode(PIN_DM_STRONG);
 264              		.loc 1 85 0
 265 0166 0C20     		movs	r0, #12
 266 0168 FFF7FEFF 		bl	L3_SetDriveMode
 267              	.LVL46:
  86:ZumoLibrary/Reflectance.c ****     L3_Write(1);
 268              		.loc 1 86 0
 269 016c 0120     		movs	r0, #1
 270 016e FFF7FEFF 		bl	L3_Write
 271              	.LVL47:
  87:ZumoLibrary/Reflectance.c ****     L2_SetDriveMode(PIN_DM_STRONG);
 272              		.loc 1 87 0
 273 0172 0C20     		movs	r0, #12
 274 0174 FFF7FEFF 		bl	L2_SetDriveMode
 275              	.LVL48:
  88:ZumoLibrary/Reflectance.c ****     L2_Write(1);
 276              		.loc 1 88 0
 277 0178 0120     		movs	r0, #1
 278 017a FFF7FEFF 		bl	L2_Write
 279              	.LVL49:
  89:ZumoLibrary/Reflectance.c ****     L1_SetDriveMode(PIN_DM_STRONG);
 280              		.loc 1 89 0
 281 017e 0C20     		movs	r0, #12
 282 0180 FFF7FEFF 		bl	L1_SetDriveMode
 283              	.LVL50:
  90:ZumoLibrary/Reflectance.c ****     L1_Write(1);
 284              		.loc 1 90 0
 285 0184 0120     		movs	r0, #1
 286 0186 FFF7FEFF 		bl	L1_Write
 287              	.LVL51:
  91:ZumoLibrary/Reflectance.c ****     Control_Reg_1_Write(0);
 288              		.loc 1 91 0
 289 018a 0020     		movs	r0, #0
 290 018c FFF7FEFF 		bl	Control_Reg_1_Write
 291              	.LVL52:
  92:ZumoLibrary/Reflectance.c **** 
  93:ZumoLibrary/Reflectance.c ****     CyDelayUs(10);
 292              		.loc 1 93 0
 293 0190 0A20     		movs	r0, #10
 294 0192 FFF7FEFF 		bl	CyDelayUs
 295              	.LVL53:
  94:ZumoLibrary/Reflectance.c ****     R1_SetDriveMode(PIN_DM_DIG_HIZ);
 296              		.loc 1 94 0
 297 0196 0220     		movs	r0, #2
 298 0198 FFF7FEFF 		bl	R1_SetDriveMode
 299              	.LVL54:
  95:ZumoLibrary/Reflectance.c ****     R2_SetDriveMode(PIN_DM_DIG_HIZ);
 300              		.loc 1 95 0
 301 019c 0220     		movs	r0, #2
 302 019e FFF7FEFF 		bl	R2_SetDriveMode
 303              	.LVL55:
  96:ZumoLibrary/Reflectance.c ****     R3_SetDriveMode(PIN_DM_DIG_HIZ);
ARM GAS  C:\Users\manuelfu\AppData\Local\Temp\ccM8kfjR.s 			page 8


 304              		.loc 1 96 0
 305 01a2 0220     		movs	r0, #2
 306 01a4 FFF7FEFF 		bl	R3_SetDriveMode
 307              	.LVL56:
  97:ZumoLibrary/Reflectance.c ****     L3_SetDriveMode(PIN_DM_DIG_HIZ);
 308              		.loc 1 97 0
 309 01a8 0220     		movs	r0, #2
 310 01aa FFF7FEFF 		bl	L3_SetDriveMode
 311              	.LVL57:
  98:ZumoLibrary/Reflectance.c ****     L2_SetDriveMode(PIN_DM_DIG_HIZ);
 312              		.loc 1 98 0
 313 01ae 0220     		movs	r0, #2
 314 01b0 FFF7FEFF 		bl	L2_SetDriveMode
 315              	.LVL58:
  99:ZumoLibrary/Reflectance.c ****     L1_SetDriveMode(PIN_DM_DIG_HIZ);
 316              		.loc 1 99 0
 317 01b4 0220     		movs	r0, #2
 318 01b6 FFF7FEFF 		bl	L1_SetDriveMode
 319              	.LVL59:
 320              	.L1:
 321 01ba BDE8F883 		pop	{r3, r4, r5, r6, r7, r8, r9, pc}
 322              	.L17:
 323 01be 00BF     		.align	2
 324              	.L16:
 325 01c0 00000000 		.word	.LANCHOR0
 326              		.cfi_endproc
 327              	.LFE64:
 328              		.size	reflectance_handler, .-reflectance_handler
 329              		.section	.text.reflectance_start,"ax",%progbits
 330              		.align	2
 331              		.global	reflectance_start
 332              		.thumb
 333              		.thumb_func
 334              		.type	reflectance_start, %function
 335              	reflectance_start:
 336              	.LFB65:
 100:ZumoLibrary/Reflectance.c **** 
 101:ZumoLibrary/Reflectance.c **** }
 102:ZumoLibrary/Reflectance.c **** 
 103:ZumoLibrary/Reflectance.c **** 
 104:ZumoLibrary/Reflectance.c **** /**
 105:ZumoLibrary/Reflectance.c **** * @brief    Starting Reflectance Sensor
 106:ZumoLibrary/Reflectance.c **** * @details 
 107:ZumoLibrary/Reflectance.c **** */
 108:ZumoLibrary/Reflectance.c **** void reflectance_start()
 109:ZumoLibrary/Reflectance.c **** {
 337              		.loc 1 109 0
 338              		.cfi_startproc
 339              		@ args = 0, pretend = 0, frame = 0
 340              		@ frame_needed = 0, uses_anonymous_args = 0
 341 0000 08B5     		push	{r3, lr}
 342              		.cfi_def_cfa_offset 8
 343              		.cfi_offset 3, -8
 344              		.cfi_offset 14, -4
 110:ZumoLibrary/Reflectance.c ****     IR_led_Write(1);
 345              		.loc 1 110 0
 346 0002 0120     		movs	r0, #1
ARM GAS  C:\Users\manuelfu\AppData\Local\Temp\ccM8kfjR.s 			page 9


 347 0004 FFF7FEFF 		bl	IR_led_Write
 348              	.LVL60:
 111:ZumoLibrary/Reflectance.c ****     //sensor_isr_StartEx(sensor_isr_handler);
 112:ZumoLibrary/Reflectance.c ****     Timer_R1_Start();
 349              		.loc 1 112 0
 350 0008 FFF7FEFF 		bl	Timer_R1_Start
 351              	.LVL61:
 113:ZumoLibrary/Reflectance.c ****     Timer_R2_Start();
 352              		.loc 1 113 0
 353 000c FFF7FEFF 		bl	Timer_R2_Start
 354              	.LVL62:
 114:ZumoLibrary/Reflectance.c ****     Timer_R3_Start();
 355              		.loc 1 114 0
 356 0010 FFF7FEFF 		bl	Timer_R3_Start
 357              	.LVL63:
 115:ZumoLibrary/Reflectance.c ****     Timer_L3_Start();
 358              		.loc 1 115 0
 359 0014 FFF7FEFF 		bl	Timer_L3_Start
 360              	.LVL64:
 116:ZumoLibrary/Reflectance.c ****     Timer_L2_Start();
 361              		.loc 1 116 0
 362 0018 FFF7FEFF 		bl	Timer_L2_Start
 363              	.LVL65:
 117:ZumoLibrary/Reflectance.c ****     Timer_L1_Start();
 364              		.loc 1 117 0
 365 001c FFF7FEFF 		bl	Timer_L1_Start
 366              	.LVL66:
 118:ZumoLibrary/Reflectance.c ****     refl_init = true;
 367              		.loc 1 118 0
 368 0020 0122     		movs	r2, #1
 369 0022 024B     		ldr	r3, .L20
 370 0024 1A70     		strb	r2, [r3]
 119:ZumoLibrary/Reflectance.c ****     Systick_Start();
 371              		.loc 1 119 0
 372 0026 FFF7FEFF 		bl	Systick_Start
 373              	.LVL67:
 374 002a 08BD     		pop	{r3, pc}
 375              	.L21:
 376              		.align	2
 377              	.L20:
 378 002c 00000000 		.word	.LANCHOR0
 379              		.cfi_endproc
 380              	.LFE65:
 381              		.size	reflectance_start, .-reflectance_start
 382              		.section	.text.reflectance_read,"ax",%progbits
 383              		.align	2
 384              		.global	reflectance_read
 385              		.thumb
 386              		.thumb_func
 387              		.type	reflectance_read, %function
 388              	reflectance_read:
 389              	.LFB66:
 120:ZumoLibrary/Reflectance.c **** }
 121:ZumoLibrary/Reflectance.c **** 
 122:ZumoLibrary/Reflectance.c **** 
 123:ZumoLibrary/Reflectance.c **** /**
 124:ZumoLibrary/Reflectance.c **** * @brief    Read reflectance sensor values
ARM GAS  C:\Users\manuelfu\AppData\Local\Temp\ccM8kfjR.s 			page 10


 125:ZumoLibrary/Reflectance.c **** * @details
 126:ZumoLibrary/Reflectance.c **** */
 127:ZumoLibrary/Reflectance.c **** void reflectance_read(struct sensors_ *values)
 128:ZumoLibrary/Reflectance.c **** {
 390              		.loc 1 128 0
 391              		.cfi_startproc
 392              		@ args = 0, pretend = 0, frame = 0
 393              		@ frame_needed = 0, uses_anonymous_args = 0
 394              		@ link register save eliminated.
 395              	.LVL68:
 396 0000 10B4     		push	{r4}
 397              		.cfi_def_cfa_offset 4
 398              		.cfi_offset 4, -4
 399 0002 0446     		mov	r4, r0
 129:ZumoLibrary/Reflectance.c ****     *values = sensors;
 400              		.loc 1 129 0
 401 0004 034B     		ldr	r3, .L24
 402 0006 07CB     		ldmia	r3!, {r0, r1, r2}
 403              	.LVL69:
 404 0008 2060     		str	r0, [r4]	@ unaligned
 405 000a 6160     		str	r1, [r4, #4]	@ unaligned
 406 000c A260     		str	r2, [r4, #8]	@ unaligned
 130:ZumoLibrary/Reflectance.c **** }
 407              		.loc 1 130 0
 408 000e 10BC     		pop	{r4}
 409              		.cfi_restore 4
 410              		.cfi_def_cfa_offset 0
 411              	.LVL70:
 412 0010 7047     		bx	lr
 413              	.L25:
 414 0012 00BF     		.align	2
 415              	.L24:
 416 0014 04000000 		.word	.LANCHOR0+4
 417              		.cfi_endproc
 418              	.LFE66:
 419              		.size	reflectance_read, .-reflectance_read
 420              		.section	.text.reflectance_digital,"ax",%progbits
 421              		.align	2
 422              		.global	reflectance_digital
 423              		.thumb
 424              		.thumb_func
 425              		.type	reflectance_digital, %function
 426              	reflectance_digital:
 427              	.LFB67:
 131:ZumoLibrary/Reflectance.c **** 
 132:ZumoLibrary/Reflectance.c **** 
 133:ZumoLibrary/Reflectance.c **** /**
 134:ZumoLibrary/Reflectance.c **** * @brief    Making Reflectance Sensor's period to digital
 135:ZumoLibrary/Reflectance.c **** * @details
 136:ZumoLibrary/Reflectance.c **** */
 137:ZumoLibrary/Reflectance.c **** void reflectance_digital(struct sensors_ *digital)
 138:ZumoLibrary/Reflectance.c **** {
 428              		.loc 1 138 0
 429              		.cfi_startproc
 430              		@ args = 0, pretend = 0, frame = 0
 431              		@ frame_needed = 0, uses_anonymous_args = 0
 432              		@ link register save eliminated.
ARM GAS  C:\Users\manuelfu\AppData\Local\Temp\ccM8kfjR.s 			page 11


 433              	.LVL71:
 139:ZumoLibrary/Reflectance.c ****     //if the results of reflectance_period function is over threshold, set digital_sensor_value to 
 140:ZumoLibrary/Reflectance.c ****     if(sensors.l3 < threshold.l3)
 434              		.loc 1 140 0
 435 0000 244B     		ldr	r3, .L39
 436 0002 9B88     		ldrh	r3, [r3, #4]
 437 0004 9BB2     		uxth	r3, r3
 438 0006 244A     		ldr	r2, .L39+4
 439 0008 1288     		ldrh	r2, [r2]
 440 000a 9342     		cmp	r3, r2
 441 000c 02D2     		bcs	.L27
 141:ZumoLibrary/Reflectance.c ****         digital->l3 = 0;
 442              		.loc 1 141 0
 443 000e 0023     		movs	r3, #0
 444 0010 0380     		strh	r3, [r0]	@ movhi
 445 0012 01E0     		b	.L28
 446              	.L27:
 142:ZumoLibrary/Reflectance.c ****     else
 143:ZumoLibrary/Reflectance.c ****         digital->l3 = 1;
 447              		.loc 1 143 0
 448 0014 0123     		movs	r3, #1
 449 0016 0380     		strh	r3, [r0]	@ movhi
 450              	.L28:
 144:ZumoLibrary/Reflectance.c ****     
 145:ZumoLibrary/Reflectance.c ****     if(sensors.l2 < threshold.l2)
 451              		.loc 1 145 0
 452 0018 1E4B     		ldr	r3, .L39
 453 001a DB88     		ldrh	r3, [r3, #6]
 454 001c 9BB2     		uxth	r3, r3
 455 001e 1E4A     		ldr	r2, .L39+4
 456 0020 5288     		ldrh	r2, [r2, #2]
 457 0022 9342     		cmp	r3, r2
 458 0024 02D2     		bcs	.L29
 146:ZumoLibrary/Reflectance.c ****         digital->l2 = 0;
 459              		.loc 1 146 0
 460 0026 0023     		movs	r3, #0
 461 0028 4380     		strh	r3, [r0, #2]	@ movhi
 462 002a 01E0     		b	.L30
 463              	.L29:
 147:ZumoLibrary/Reflectance.c ****     else
 148:ZumoLibrary/Reflectance.c ****         digital->l2 = 1;
 464              		.loc 1 148 0
 465 002c 0123     		movs	r3, #1
 466 002e 4380     		strh	r3, [r0, #2]	@ movhi
 467              	.L30:
 149:ZumoLibrary/Reflectance.c ****     
 150:ZumoLibrary/Reflectance.c ****     if(sensors.l1 < threshold.l1)
 468              		.loc 1 150 0
 469 0030 184B     		ldr	r3, .L39
 470 0032 1B89     		ldrh	r3, [r3, #8]
 471 0034 9BB2     		uxth	r3, r3
 472 0036 184A     		ldr	r2, .L39+4
 473 0038 9288     		ldrh	r2, [r2, #4]
 474 003a 9342     		cmp	r3, r2
 475 003c 02D2     		bcs	.L31
 151:ZumoLibrary/Reflectance.c ****         digital->l1 = 0;
 476              		.loc 1 151 0
ARM GAS  C:\Users\manuelfu\AppData\Local\Temp\ccM8kfjR.s 			page 12


 477 003e 0023     		movs	r3, #0
 478 0040 8380     		strh	r3, [r0, #4]	@ movhi
 479 0042 01E0     		b	.L32
 480              	.L31:
 152:ZumoLibrary/Reflectance.c ****     else
 153:ZumoLibrary/Reflectance.c ****         digital->l1 = 1;
 481              		.loc 1 153 0
 482 0044 0123     		movs	r3, #1
 483 0046 8380     		strh	r3, [r0, #4]	@ movhi
 484              	.L32:
 154:ZumoLibrary/Reflectance.c ****     
 155:ZumoLibrary/Reflectance.c ****     if(sensors.r1 < threshold.r1)
 485              		.loc 1 155 0
 486 0048 124B     		ldr	r3, .L39
 487 004a 5B89     		ldrh	r3, [r3, #10]
 488 004c 9BB2     		uxth	r3, r3
 489 004e 124A     		ldr	r2, .L39+4
 490 0050 D288     		ldrh	r2, [r2, #6]
 491 0052 9342     		cmp	r3, r2
 492 0054 02D2     		bcs	.L33
 156:ZumoLibrary/Reflectance.c ****         digital->r1 = 0;
 493              		.loc 1 156 0
 494 0056 0023     		movs	r3, #0
 495 0058 C380     		strh	r3, [r0, #6]	@ movhi
 496 005a 01E0     		b	.L34
 497              	.L33:
 157:ZumoLibrary/Reflectance.c ****     else
 158:ZumoLibrary/Reflectance.c ****         digital->r1 = 1;
 498              		.loc 1 158 0
 499 005c 0123     		movs	r3, #1
 500 005e C380     		strh	r3, [r0, #6]	@ movhi
 501              	.L34:
 159:ZumoLibrary/Reflectance.c ****     
 160:ZumoLibrary/Reflectance.c ****     if(sensors.r2 < threshold.r2)
 502              		.loc 1 160 0
 503 0060 0C4B     		ldr	r3, .L39
 504 0062 9B89     		ldrh	r3, [r3, #12]
 505 0064 9BB2     		uxth	r3, r3
 506 0066 0C4A     		ldr	r2, .L39+4
 507 0068 1289     		ldrh	r2, [r2, #8]
 508 006a 9342     		cmp	r3, r2
 509 006c 02D2     		bcs	.L35
 161:ZumoLibrary/Reflectance.c ****         digital->r2 = 0;
 510              		.loc 1 161 0
 511 006e 0023     		movs	r3, #0
 512 0070 0381     		strh	r3, [r0, #8]	@ movhi
 513 0072 01E0     		b	.L36
 514              	.L35:
 162:ZumoLibrary/Reflectance.c ****     else
 163:ZumoLibrary/Reflectance.c ****         digital->r2 = 1;
 515              		.loc 1 163 0
 516 0074 0123     		movs	r3, #1
 517 0076 0381     		strh	r3, [r0, #8]	@ movhi
 518              	.L36:
 164:ZumoLibrary/Reflectance.c ****     
 165:ZumoLibrary/Reflectance.c ****     if(sensors.r3 < threshold.r3)
 519              		.loc 1 165 0
ARM GAS  C:\Users\manuelfu\AppData\Local\Temp\ccM8kfjR.s 			page 13


 520 0078 064B     		ldr	r3, .L39
 521 007a DB89     		ldrh	r3, [r3, #14]
 522 007c 9BB2     		uxth	r3, r3
 523 007e 064A     		ldr	r2, .L39+4
 524 0080 5289     		ldrh	r2, [r2, #10]
 525 0082 9342     		cmp	r3, r2
 526 0084 02D2     		bcs	.L37
 166:ZumoLibrary/Reflectance.c ****         digital->r3 = 0;
 527              		.loc 1 166 0
 528 0086 0023     		movs	r3, #0
 529 0088 4381     		strh	r3, [r0, #10]	@ movhi
 530 008a 7047     		bx	lr
 531              	.L37:
 167:ZumoLibrary/Reflectance.c ****     else
 168:ZumoLibrary/Reflectance.c ****         digital->r3 = 1;
 532              		.loc 1 168 0
 533 008c 0123     		movs	r3, #1
 534 008e 4381     		strh	r3, [r0, #10]	@ movhi
 535 0090 7047     		bx	lr
 536              	.L40:
 537 0092 00BF     		.align	2
 538              	.L39:
 539 0094 00000000 		.word	.LANCHOR0
 540 0098 00000000 		.word	.LANCHOR1
 541              		.cfi_endproc
 542              	.LFE67:
 543              		.size	reflectance_digital, .-reflectance_digital
 544              		.section	.text.reflectance_set_threshold,"ax",%progbits
 545              		.align	2
 546              		.global	reflectance_set_threshold
 547              		.thumb
 548              		.thumb_func
 549              		.type	reflectance_set_threshold, %function
 550              	reflectance_set_threshold:
 551              	.LFB68:
 169:ZumoLibrary/Reflectance.c ****         
 170:ZumoLibrary/Reflectance.c **** }
 171:ZumoLibrary/Reflectance.c **** 
 172:ZumoLibrary/Reflectance.c **** void reflectance_set_threshold(uint16_t l3, uint16_t l2, uint16_t l1, uint16_t r1, uint16_t r2, uin
 173:ZumoLibrary/Reflectance.c **** {
 552              		.loc 1 173 0
 553              		.cfi_startproc
 554              		@ args = 8, pretend = 0, frame = 0
 555              		@ frame_needed = 0, uses_anonymous_args = 0
 556              		@ link register save eliminated.
 557              	.LVL72:
 558 0000 10B4     		push	{r4}
 559              		.cfi_def_cfa_offset 4
 560              		.cfi_offset 4, -4
 174:ZumoLibrary/Reflectance.c ****     threshold.l3 = l3;
 561              		.loc 1 174 0
 562 0002 064C     		ldr	r4, .L43
 563 0004 2080     		strh	r0, [r4]	@ movhi
 175:ZumoLibrary/Reflectance.c ****     threshold.l2 = l2;
 564              		.loc 1 175 0
 565 0006 6180     		strh	r1, [r4, #2]	@ movhi
 176:ZumoLibrary/Reflectance.c ****     threshold.l1 = l1;
ARM GAS  C:\Users\manuelfu\AppData\Local\Temp\ccM8kfjR.s 			page 14


 566              		.loc 1 176 0
 567 0008 A280     		strh	r2, [r4, #4]	@ movhi
 177:ZumoLibrary/Reflectance.c ****     threshold.r3 = r3;
 568              		.loc 1 177 0
 569 000a BDF80820 		ldrh	r2, [sp, #8]
 570              	.LVL73:
 571 000e 6281     		strh	r2, [r4, #10]	@ movhi
 178:ZumoLibrary/Reflectance.c ****     threshold.r2 = r2;
 572              		.loc 1 178 0
 573 0010 BDF80420 		ldrh	r2, [sp, #4]
 574 0014 2281     		strh	r2, [r4, #8]	@ movhi
 179:ZumoLibrary/Reflectance.c ****     threshold.r1 = r1;
 575              		.loc 1 179 0
 576 0016 E380     		strh	r3, [r4, #6]	@ movhi
 180:ZumoLibrary/Reflectance.c **** }
 577              		.loc 1 180 0
 578 0018 10BC     		pop	{r4}
 579              		.cfi_restore 4
 580              		.cfi_def_cfa_offset 0
 581              	.LVL74:
 582 001a 7047     		bx	lr
 583              	.L44:
 584              		.align	2
 585              	.L43:
 586 001c 00000000 		.word	.LANCHOR1
 587              		.cfi_endproc
 588              	.LFE68:
 589              		.size	reflectance_set_threshold, .-reflectance_set_threshold
 590              		.data
 591              		.align	2
 592              		.set	.LANCHOR1,. + 0
 593              		.type	threshold, %object
 594              		.size	threshold, 12
 595              	threshold:
 596 0000 1027     		.short	10000
 597 0002 1027     		.short	10000
 598 0004 1027     		.short	10000
 599 0006 1027     		.short	10000
 600 0008 1027     		.short	10000
 601 000a 1027     		.short	10000
 602              		.bss
 603              		.align	2
 604              		.set	.LANCHOR0,. + 0
 605              		.type	refl_init, %object
 606              		.size	refl_init, 1
 607              	refl_init:
 608 0000 00       		.space	1
 609 0001 000000   		.space	3
 610              		.type	sensors, %object
 611              		.size	sensors, 12
 612              	sensors:
 613 0004 00000000 		.space	12
 613      00000000 
 613      00000000 
 614              		.type	digital_sensor_value, %object
 615              		.size	digital_sensor_value, 12
 616              	digital_sensor_value:
ARM GAS  C:\Users\manuelfu\AppData\Local\Temp\ccM8kfjR.s 			page 15


 617 0010 00000000 		.space	12
 617      00000000 
 617      00000000 
 618              		.text
 619              	.Letext0:
 620              		.file 2 "c:\\program files (x86)\\cypress\\psoc creator\\4.2\\psoc creator\\import\\gnu\\arm\\5.4.
 621              		.file 3 "c:\\program files (x86)\\cypress\\psoc creator\\4.2\\psoc creator\\import\\gnu\\arm\\5.4.
 622              		.file 4 "Generated_Source\\PSoC5/cytypes.h"
 623              		.file 5 "ZumoLibrary\\Reflectance.h"
 624              		.file 6 "Generated_Source\\PSoC5/Timer_R1.h"
 625              		.file 7 "Generated_Source\\PSoC5/Timer_R2.h"
 626              		.file 8 "Generated_Source\\PSoC5/Timer_R3.h"
 627              		.file 9 "Generated_Source\\PSoC5/Timer_L3.h"
 628              		.file 10 "Generated_Source\\PSoC5/Timer_L2.h"
 629              		.file 11 "Generated_Source\\PSoC5/Timer_L1.h"
 630              		.file 12 "Generated_Source\\PSoC5/Control_Reg_1.h"
 631              		.file 13 "Generated_Source\\PSoC5/R1.h"
 632              		.file 14 "Generated_Source\\PSoC5/R2.h"
 633              		.file 15 "Generated_Source\\PSoC5/R3.h"
 634              		.file 16 "Generated_Source\\PSoC5/L3.h"
 635              		.file 17 "Generated_Source\\PSoC5/L2.h"
 636              		.file 18 "Generated_Source\\PSoC5/L1.h"
 637              		.file 19 "Generated_Source\\PSoC5/CyLib.h"
 638              		.file 20 "Generated_Source\\PSoC5/IR_led.h"
 639              		.file 21 "ZumoLibrary\\Systick.h"
 640              		.file 22 "Generated_Source\\PSoC5/core_cm3.h"