ARM GAS  C:\Users\manuelfu\AppData\Local\Temp\ccIaUFaK.s 			page 1


   1              		.syntax unified
   2              		.cpu cortex-m3
   3              		.fpu softvfp
   4              		.eabi_attribute 20, 1
   5              		.eabi_attribute 21, 1
   6              		.eabi_attribute 23, 3
   7              		.eabi_attribute 24, 1
   8              		.eabi_attribute 25, 1
   9              		.eabi_attribute 26, 1
  10              		.eabi_attribute 30, 1
  11              		.eabi_attribute 34, 1
  12              		.eabi_attribute 18, 4
  13              		.thumb
  14              		.syntax unified
  15              		.file	"Retarget.c"
  16              		.text
  17              	.Ltext0:
  18              		.cfi_sections	.debug_frame
  19              		.section	.text._write,"ax",%progbits
  20              		.align	2
  21              		.global	_write
  22              		.thumb
  23              		.thumb_func
  24              		.type	_write, %function
  25              	_write:
  26              	.LFB63:
  27              		.file 1 "ZumoLibrary\\Retarget.c"
   1:ZumoLibrary/Retarget.c **** #include "project.h"
   2:ZumoLibrary/Retarget.c **** 
   3:ZumoLibrary/Retarget.c **** /* Don't remove the functions below */
   4:ZumoLibrary/Retarget.c **** int _write(int file, char *ptr, int len)
   5:ZumoLibrary/Retarget.c **** {
  28              		.loc 1 5 0
  29              		.cfi_startproc
  30              		@ args = 0, pretend = 0, frame = 0
  31              		@ frame_needed = 0, uses_anonymous_args = 0
  32              	.LVL0:
  33 0000 F8B5     		push	{r3, r4, r5, r6, r7, lr}
  34              		.cfi_def_cfa_offset 24
  35              		.cfi_offset 3, -24
  36              		.cfi_offset 4, -20
  37              		.cfi_offset 5, -16
  38              		.cfi_offset 6, -12
  39              		.cfi_offset 7, -8
  40              		.cfi_offset 14, -4
  41 0002 0C46     		mov	r4, r1
  42 0004 1746     		mov	r7, r2
  43              	.LVL1:
   6:ZumoLibrary/Retarget.c ****     (void)file; /* Parameter is not used, suppress unused argument warning */
   7:ZumoLibrary/Retarget.c **** 	int n;
   8:ZumoLibrary/Retarget.c **** 	for(n = 0; n < len; n++) {
  44              		.loc 1 8 0
  45 0006 0025     		movs	r5, #0
  46 0008 0BE0     		b	.L2
  47              	.LVL2:
  48              	.L4:
   9:ZumoLibrary/Retarget.c ****         if(*ptr == '\n') UART_1_PutChar('\r');
ARM GAS  C:\Users\manuelfu\AppData\Local\Temp\ccIaUFaK.s 			page 2


  49              		.loc 1 9 0
  50 000a 2378     		ldrb	r3, [r4]	@ zero_extendqisi2
  51 000c 0A2B     		cmp	r3, #10
  52 000e 02D1     		bne	.L3
  53              		.loc 1 9 0 is_stmt 0 discriminator 1
  54 0010 0D20     		movs	r0, #13
  55 0012 FFF7FEFF 		bl	UART_1_PutChar
  56              	.LVL3:
  57              	.L3:
  10:ZumoLibrary/Retarget.c **** 		UART_1_PutChar(*ptr++);
  58              		.loc 1 10 0 is_stmt 1 discriminator 2
  59 0016 661C     		adds	r6, r4, #1
  60              	.LVL4:
  61 0018 2078     		ldrb	r0, [r4]	@ zero_extendqisi2
  62 001a FFF7FEFF 		bl	UART_1_PutChar
  63              	.LVL5:
   8:ZumoLibrary/Retarget.c ****         if(*ptr == '\n') UART_1_PutChar('\r');
  64              		.loc 1 8 0 discriminator 2
  65 001e 0135     		adds	r5, r5, #1
  66              	.LVL6:
  67              		.loc 1 10 0 discriminator 2
  68 0020 3446     		mov	r4, r6
  69              	.LVL7:
  70              	.L2:
   8:ZumoLibrary/Retarget.c ****         if(*ptr == '\n') UART_1_PutChar('\r');
  71              		.loc 1 8 0 discriminator 1
  72 0022 BD42     		cmp	r5, r7
  73 0024 F1DB     		blt	.L4
  11:ZumoLibrary/Retarget.c **** 	}
  12:ZumoLibrary/Retarget.c **** 	return len;
  13:ZumoLibrary/Retarget.c **** }
  74              		.loc 1 13 0
  75 0026 3846     		mov	r0, r7
  76 0028 F8BD     		pop	{r3, r4, r5, r6, r7, pc}
  77              		.cfi_endproc
  78              	.LFE63:
  79              		.size	_write, .-_write
  80 002a 00BF     		.section	.text._read,"ax",%progbits
  81              		.align	2
  82              		.global	_read
  83              		.thumb
  84              		.thumb_func
  85              		.type	_read, %function
  86              	_read:
  87              	.LFB64:
  14:ZumoLibrary/Retarget.c **** 
  15:ZumoLibrary/Retarget.c **** int _read (int file, char *ptr, int count)
  16:ZumoLibrary/Retarget.c **** {
  88              		.loc 1 16 0
  89              		.cfi_startproc
  90              		@ args = 0, pretend = 0, frame = 0
  91              		@ frame_needed = 0, uses_anonymous_args = 0
  92              	.LVL8:
  93 0000 F8B5     		push	{r3, r4, r5, r6, r7, lr}
  94              		.cfi_def_cfa_offset 24
  95              		.cfi_offset 3, -24
  96              		.cfi_offset 4, -20
ARM GAS  C:\Users\manuelfu\AppData\Local\Temp\ccIaUFaK.s 			page 3


  97              		.cfi_offset 5, -16
  98              		.cfi_offset 6, -12
  99              		.cfi_offset 7, -8
 100              		.cfi_offset 14, -4
 101 0002 0F46     		mov	r7, r1
 102 0004 1546     		mov	r5, r2
 103              	.LVL9:
  17:ZumoLibrary/Retarget.c ****     int chs = 0;
 104              		.loc 1 17 0
 105 0006 0026     		movs	r6, #0
  18:ZumoLibrary/Retarget.c ****     char ch;
  19:ZumoLibrary/Retarget.c ****     static char buf[128];
  20:ZumoLibrary/Retarget.c ****     static unsigned int cnt = 0;
  21:ZumoLibrary/Retarget.c ****     static unsigned int head = 0;
  22:ZumoLibrary/Retarget.c ****     static unsigned int tail = 0;
  23:ZumoLibrary/Retarget.c ****     static unsigned int lf = 0;
  24:ZumoLibrary/Retarget.c ****  
  25:ZumoLibrary/Retarget.c ****     (void)file; /* Parameter is not used, suppress unused argument warning */
  26:ZumoLibrary/Retarget.c ****     while(count > 0) {
 106              		.loc 1 26 0
 107 0008 51E0     		b	.L12
 108              	.LVL10:
 109              	.L16:
  27:ZumoLibrary/Retarget.c ****         ch = UART_1_GetChar();
 110              		.loc 1 27 0
 111 000a FFF7FEFF 		bl	UART_1_GetChar
 112              	.LVL11:
  28:ZumoLibrary/Retarget.c ****         if(ch != 0) {
 113              		.loc 1 28 0
 114 000e 0446     		mov	r4, r0
 115 0010 50B3     		cbz	r0, .L8
  29:ZumoLibrary/Retarget.c ****             UART_1_PutChar(ch);
 116              		.loc 1 29 0
 117 0012 FFF7FEFF 		bl	UART_1_PutChar
 118              	.LVL12:
  30:ZumoLibrary/Retarget.c ****             if(ch == '\r') { /* convert CR to LF for processing, putty sends CR when Enter is press
 119              		.loc 1 30 0
 120 0016 0D2C     		cmp	r4, #13
 121 0018 03D1     		bne	.L9
 122              	.LVL13:
  31:ZumoLibrary/Retarget.c ****                 ch = '\n';
  32:ZumoLibrary/Retarget.c ****                 UART_1_PutChar(ch);
 123              		.loc 1 32 0
 124 001a 0A20     		movs	r0, #10
 125 001c FFF7FEFF 		bl	UART_1_PutChar
 126              	.LVL14:
  31:ZumoLibrary/Retarget.c ****                 ch = '\n';
 127              		.loc 1 31 0
 128 0020 0A24     		movs	r4, #10
 129              	.LVL15:
 130              	.L9:
  33:ZumoLibrary/Retarget.c ****             }
  34:ZumoLibrary/Retarget.c ****             if(ch == 127) { /* backspace handling */
 131              		.loc 1 34 0
 132 0022 7F2C     		cmp	r4, #127
 133 0024 0BD1     		bne	.L10
  35:ZumoLibrary/Retarget.c ****                 if(cnt > 0) {
ARM GAS  C:\Users\manuelfu\AppData\Local\Temp\ccIaUFaK.s 			page 4


 134              		.loc 1 35 0
 135 0026 244B     		ldr	r3, .L18
 136 0028 1B68     		ldr	r3, [r3]
 137 002a EBB1     		cbz	r3, .L8
  36:ZumoLibrary/Retarget.c ****                     cnt--;
 138              		.loc 1 36 0
 139 002c 224A     		ldr	r2, .L18
 140 002e 013B     		subs	r3, r3, #1
 141 0030 1360     		str	r3, [r2]
  37:ZumoLibrary/Retarget.c ****                     head = (head - 1) & 0x7F;
 142              		.loc 1 37 0
 143 0032 5368     		ldr	r3, [r2, #4]
 144 0034 013B     		subs	r3, r3, #1
 145 0036 03F07F03 		and	r3, r3, #127
 146 003a 5360     		str	r3, [r2, #4]
 147 003c 14E0     		b	.L8
 148              	.L10:
  38:ZumoLibrary/Retarget.c ****                 }
  39:ZumoLibrary/Retarget.c ****             }
  40:ZumoLibrary/Retarget.c ****             else { /* other characters: store and check for LF */
  41:ZumoLibrary/Retarget.c ****                 buf[head] = ch;
 149              		.loc 1 41 0
 150 003e 1E4A     		ldr	r2, .L18
 151 0040 5368     		ldr	r3, [r2, #4]
 152 0042 D118     		adds	r1, r2, r3
 153 0044 0C72     		strb	r4, [r1, #8]
  42:ZumoLibrary/Retarget.c ****                 head = (head + 1) & 0x7F;
 154              		.loc 1 42 0
 155 0046 0133     		adds	r3, r3, #1
 156 0048 03F07F03 		and	r3, r3, #127
 157 004c 5360     		str	r3, [r2, #4]
  43:ZumoLibrary/Retarget.c ****                 cnt++;
 158              		.loc 1 43 0
 159 004e 1368     		ldr	r3, [r2]
 160 0050 0133     		adds	r3, r3, #1
 161 0052 1360     		str	r3, [r2]
  44:ZumoLibrary/Retarget.c ****                 if(ch == '\n' || cnt >= 128) lf++;
 162              		.loc 1 44 0
 163 0054 0A2C     		cmp	r4, #10
 164 0056 01D0     		beq	.L11
 165              		.loc 1 44 0 is_stmt 0 discriminator 2
 166 0058 7F2B     		cmp	r3, #127
 167 005a 05D9     		bls	.L8
 168              	.L11:
 169              		.loc 1 44 0 discriminator 3
 170 005c 164A     		ldr	r2, .L18
 171 005e D2F88830 		ldr	r3, [r2, #136]
 172 0062 0133     		adds	r3, r3, #1
 173 0064 C2F88830 		str	r3, [r2, #136]
 174              	.LVL16:
 175              	.L8:
  45:ZumoLibrary/Retarget.c ****             }
  46:ZumoLibrary/Retarget.c ****         }
  47:ZumoLibrary/Retarget.c ****         if(lf > 0) {
 176              		.loc 1 47 0 is_stmt 1
 177 0068 134B     		ldr	r3, .L18
 178 006a D3F88830 		ldr	r3, [r3, #136]
ARM GAS  C:\Users\manuelfu\AppData\Local\Temp\ccIaUFaK.s 			page 5


 179 006e F3B1     		cbz	r3, .L12
  48:ZumoLibrary/Retarget.c ****             if(cnt > 0) {
 180              		.loc 1 48 0
 181 0070 114A     		ldr	r2, .L18
 182 0072 1268     		ldr	r2, [r2]
 183 0074 BAB1     		cbz	r2, .L13
  49:ZumoLibrary/Retarget.c ****                 if(buf[tail] == '\n') lf--;
 184              		.loc 1 49 0
 185 0076 1048     		ldr	r0, .L18
 186 0078 D0F88C10 		ldr	r1, [r0, #140]
 187 007c 0844     		add	r0, r0, r1
 188 007e 007A     		ldrb	r0, [r0, #8]	@ zero_extendqisi2
 189 0080 0A28     		cmp	r0, #10
 190 0082 03D1     		bne	.L14
 191              		.loc 1 49 0 is_stmt 0 discriminator 1
 192 0084 013B     		subs	r3, r3, #1
 193 0086 0C4C     		ldr	r4, .L18
 194 0088 C4F88830 		str	r3, [r4, #136]
 195              	.L14:
 196              	.LVL17:
  50:ZumoLibrary/Retarget.c ****                 *ptr++ = buf[tail];
 197              		.loc 1 50 0 is_stmt 1
 198 008c 3870     		strb	r0, [r7]
  51:ZumoLibrary/Retarget.c ****                 tail = (tail + 1) & 0x7F;
 199              		.loc 1 51 0
 200 008e 0131     		adds	r1, r1, #1
 201 0090 01F07F01 		and	r1, r1, #127
 202 0094 084B     		ldr	r3, .L18
 203 0096 C3F88C10 		str	r1, [r3, #140]
  52:ZumoLibrary/Retarget.c ****                 cnt--;
 204              		.loc 1 52 0
 205 009a 013A     		subs	r2, r2, #1
 206 009c 1A60     		str	r2, [r3]
  53:ZumoLibrary/Retarget.c ****                 chs++;
 207              		.loc 1 53 0
 208 009e 0136     		adds	r6, r6, #1
 209              	.LVL18:
  54:ZumoLibrary/Retarget.c ****                 count--;
 210              		.loc 1 54 0
 211 00a0 013D     		subs	r5, r5, #1
 212              	.LVL19:
  50:ZumoLibrary/Retarget.c ****                 tail = (tail + 1) & 0x7F;
 213              		.loc 1 50 0
 214 00a2 0137     		adds	r7, r7, #1
 215              	.LVL20:
 216 00a4 03E0     		b	.L12
 217              	.L13:
  55:ZumoLibrary/Retarget.c ****             }
  56:ZumoLibrary/Retarget.c ****             else {
  57:ZumoLibrary/Retarget.c ****                 lf = 0;
 218              		.loc 1 57 0
 219 00a6 0022     		movs	r2, #0
 220 00a8 034B     		ldr	r3, .L18
 221 00aa C3F88820 		str	r2, [r3, #136]
 222              	.LVL21:
 223              	.L12:
  26:ZumoLibrary/Retarget.c ****         ch = UART_1_GetChar();
ARM GAS  C:\Users\manuelfu\AppData\Local\Temp\ccIaUFaK.s 			page 6


 224              		.loc 1 26 0
 225 00ae 002D     		cmp	r5, #0
 226 00b0 ABDC     		bgt	.L16
  58:ZumoLibrary/Retarget.c ****             }
  59:ZumoLibrary/Retarget.c ****         }
  60:ZumoLibrary/Retarget.c ****     }
  61:ZumoLibrary/Retarget.c ****     return chs;
  62:ZumoLibrary/Retarget.c **** }...
 227              		.loc 1 62 0
 228 00b2 3046     		mov	r0, r6
 229 00b4 F8BD     		pop	{r3, r4, r5, r6, r7, pc}
 230              	.LVL22:
 231              	.L19:
 232 00b6 00BF     		.align	2
 233              	.L18:
 234 00b8 00000000 		.word	.LANCHOR0
 235              		.cfi_endproc
 236              	.LFE64:
 237              		.size	_read, .-_read
 238              		.bss
 239              		.align	2
 240              		.set	.LANCHOR0,. + 0
 241              		.type	cnt.6804, %object
 242              		.size	cnt.6804, 4
 243              	cnt.6804:
 244 0000 00000000 		.space	4
 245              		.type	head.6805, %object
 246              		.size	head.6805, 4
 247              	head.6805:
 248 0004 00000000 		.space	4
 249              		.type	buf.6803, %object
 250              		.size	buf.6803, 128
 251              	buf.6803:
 252 0008 00000000 		.space	128
 252      00000000 
 252      00000000 
 252      00000000 
 252      00000000 
 253              		.type	lf.6807, %object
 254              		.size	lf.6807, 4
 255              	lf.6807:
 256 0088 00000000 		.space	4
 257              		.type	tail.6806, %object
 258              		.size	tail.6806, 4
 259              	tail.6806:
 260 008c 00000000 		.space	4
 261              		.text
 262              	.Letext0:
 263              		.file 2 "c:\\program files (x86)\\cypress\\psoc creator\\4.2\\psoc creator\\import\\gnu\\arm\\5.4.
 264              		.file 3 "c:\\program files (x86)\\cypress\\psoc creator\\4.2\\psoc creator\\import\\gnu\\arm\\5.4.
 265              		.file 4 "Generated_Source\\PSoC5/UART_1.h"
 266              		.file 5 "Generated_Source\\PSoC5/core_cm3.h"