ARM GAS  C:\Users\manuelfu\AppData\Local\Temp\ccrlKxnK.s 			page 1


   1              		.syntax unified
   2              		.cpu cortex-m3
   3              		.fpu softvfp
   4              		.eabi_attribute 20, 1
   5              		.eabi_attribute 21, 1
   6              		.eabi_attribute 23, 3
   7              		.eabi_attribute 24, 1
   8              		.eabi_attribute 25, 1
   9              		.eabi_attribute 26, 1
  10              		.eabi_attribute 30, 1
  11              		.eabi_attribute 34, 1
  12              		.eabi_attribute 18, 4
  13              		.thumb
  14              		.syntax unified
  15              		.file	"Systick.c"
  16              		.text
  17              	.Ltext0:
  18              		.cfi_sections	.debug_frame
  19              		.section	.text.USER_ISR,"ax",%progbits
  20              		.align	2
  21              		.global	USER_ISR
  22              		.thumb
  23              		.thumb_func
  24              		.type	USER_ISR, %function
  25              	USER_ISR:
  26              	.LFB63:
  27              		.file 1 "ZumoLibrary\\Systick.c"
   1:ZumoLibrary/Systick.c **** #include <stdbool.h>
   2:ZumoLibrary/Systick.c **** #include "project.h"
   3:ZumoLibrary/Systick.c **** #include "Ultra.h"
   4:ZumoLibrary/Systick.c **** #include "Reflectance.h"
   5:ZumoLibrary/Systick.c **** 
   6:ZumoLibrary/Systick.c **** static volatile uint32_t systicks;
   7:ZumoLibrary/Systick.c **** /* ISR prototype declaration */
   8:ZumoLibrary/Systick.c **** CY_ISR_PROTO(USER_ISR); 
   9:ZumoLibrary/Systick.c **** /* User ISR function definition */
  10:ZumoLibrary/Systick.c **** CY_ISR(USER_ISR) {
  28              		.loc 1 10 0
  29              		.cfi_startproc
  30              		@ args = 0, pretend = 0, frame = 0
  31              		@ frame_needed = 0, uses_anonymous_args = 0
  32 0000 08B5     		push	{r3, lr}
  33              		.cfi_def_cfa_offset 8
  34              		.cfi_offset 3, -8
  35              		.cfi_offset 14, -4
  11:ZumoLibrary/Systick.c ****     /* User ISR Code*/
  12:ZumoLibrary/Systick.c ****     ++systicks;
  36              		.loc 1 12 0
  37 0002 044A     		ldr	r2, .L3
  38 0004 1368     		ldr	r3, [r2]
  39 0006 0133     		adds	r3, r3, #1
  40 0008 1360     		str	r3, [r2]
  13:ZumoLibrary/Systick.c ****     ultrasonic_handler();
  41              		.loc 1 13 0
  42 000a FFF7FEFF 		bl	ultrasonic_handler
  43              	.LVL0:
  14:ZumoLibrary/Systick.c ****     reflectance_handler();
ARM GAS  C:\Users\manuelfu\AppData\Local\Temp\ccrlKxnK.s 			page 2


  44              		.loc 1 14 0
  45 000e FFF7FEFF 		bl	reflectance_handler
  46              	.LVL1:
  47 0012 08BD     		pop	{r3, pc}
  48              	.L4:
  49              		.align	2
  50              	.L3:
  51 0014 00000000 		.word	.LANCHOR0
  52              		.cfi_endproc
  53              	.LFE63:
  54              		.size	USER_ISR, .-USER_ISR
  55              		.section	.text.Systick_Start,"ax",%progbits
  56              		.align	2
  57              		.global	Systick_Start
  58              		.thumb
  59              		.thumb_func
  60              		.type	Systick_Start, %function
  61              	Systick_Start:
  62              	.LFB64:
  15:ZumoLibrary/Systick.c **** }  
  16:ZumoLibrary/Systick.c **** 
  17:ZumoLibrary/Systick.c **** void Systick_Start(void)
  18:ZumoLibrary/Systick.c **** {
  63              		.loc 1 18 0
  64              		.cfi_startproc
  65              		@ args = 0, pretend = 0, frame = 0
  66              		@ frame_needed = 0, uses_anonymous_args = 0
  67 0000 08B5     		push	{r3, lr}
  68              		.cfi_def_cfa_offset 8
  69              		.cfi_offset 3, -8
  70              		.cfi_offset 14, -4
  19:ZumoLibrary/Systick.c ****     static bool init = false;
  20:ZumoLibrary/Systick.c ****     if(!init) {
  71              		.loc 1 20 0
  72 0002 0B4B     		ldr	r3, .L8
  73 0004 1B79     		ldrb	r3, [r3, #4]	@ zero_extendqisi2
  74 0006 93B9     		cbnz	r3, .L5
  21:ZumoLibrary/Systick.c ****         init = true;
  75              		.loc 1 21 0
  76 0008 0122     		movs	r2, #1
  77 000a 094B     		ldr	r3, .L8
  78 000c 1A71     		strb	r2, [r3, #4]
  22:ZumoLibrary/Systick.c ****         // Map systick ISR to the user defined ISR. SysTick_IRQn is already defined in core_cm0.h f
  23:ZumoLibrary/Systick.c ****         CyIntSetSysVector((SysTick_IRQn + 16), USER_ISR);  
  79              		.loc 1 23 0
  80 000e 0949     		ldr	r1, .L8+4
  81 0010 0F20     		movs	r0, #15
  82 0012 FFF7FEFF 		bl	CyIntSetSysVector
  83              	.LVL2:
  84              	.LBB8:
  85              	.LBB9:
  86              		.file 2 "Generated_Source\\PSoC5/core_cm3.h"
   1:Generated_Source\PSoC5/core_cm3.h **** /**************************************************************************//**
   2:Generated_Source\PSoC5/core_cm3.h ****  * @file     core_cm3.h
   3:Generated_Source\PSoC5/core_cm3.h ****  * @brief    CMSIS Cortex-M3 Core Peripheral Access Layer Header File
   4:Generated_Source\PSoC5/core_cm3.h ****  * @version  V5.00
   5:Generated_Source\PSoC5/core_cm3.h ****  * @date     13. September 2016
ARM GAS  C:\Users\manuelfu\AppData\Local\Temp\ccrlKxnK.s 			page 3


   6:Generated_Source\PSoC5/core_cm3.h ****  ******************************************************************************/
   7:Generated_Source\PSoC5/core_cm3.h **** /*
   8:Generated_Source\PSoC5/core_cm3.h ****  * Copyright (c) 2009-2016 ARM Limited. All rights reserved.
   9:Generated_Source\PSoC5/core_cm3.h ****  *
  10:Generated_Source\PSoC5/core_cm3.h ****  * SPDX-License-Identifier: Apache-2.0
  11:Generated_Source\PSoC5/core_cm3.h ****  *
  12:Generated_Source\PSoC5/core_cm3.h ****  * Licensed under the Apache License, Version 2.0 (the License); you may
  13:Generated_Source\PSoC5/core_cm3.h ****  * not use this file except in compliance with the License.
  14:Generated_Source\PSoC5/core_cm3.h ****  * You may obtain a copy of the License at
  15:Generated_Source\PSoC5/core_cm3.h ****  *
  16:Generated_Source\PSoC5/core_cm3.h ****  * http://www.apache.org/licenses/LICENSE-2.0
  17:Generated_Source\PSoC5/core_cm3.h ****  *
  18:Generated_Source\PSoC5/core_cm3.h ****  * Unless required by applicable law or agreed to in writing, software
  19:Generated_Source\PSoC5/core_cm3.h ****  * distributed under the License is distributed on an AS IS BASIS, WITHOUT
  20:Generated_Source\PSoC5/core_cm3.h ****  * WARRANTIES OR CONDITIONS OF ANY KIND, either express or implied.
  21:Generated_Source\PSoC5/core_cm3.h ****  * See the License for the specific language governing permissions and
  22:Generated_Source\PSoC5/core_cm3.h ****  * limitations under the License.
  23:Generated_Source\PSoC5/core_cm3.h ****  */
  24:Generated_Source\PSoC5/core_cm3.h **** 
  25:Generated_Source\PSoC5/core_cm3.h **** #if   defined ( __ICCARM__ )
  26:Generated_Source\PSoC5/core_cm3.h ****  #pragma system_include         /* treat file as system include file for MISRA check */
  27:Generated_Source\PSoC5/core_cm3.h **** #elif defined (__ARMCC_VERSION) && (__ARMCC_VERSION >= 6010050)
  28:Generated_Source\PSoC5/core_cm3.h ****   #pragma clang system_header   /* treat file as system include file */
  29:Generated_Source\PSoC5/core_cm3.h **** #endif
  30:Generated_Source\PSoC5/core_cm3.h **** 
  31:Generated_Source\PSoC5/core_cm3.h **** #ifndef __CORE_CM3_H_GENERIC
  32:Generated_Source\PSoC5/core_cm3.h **** #define __CORE_CM3_H_GENERIC
  33:Generated_Source\PSoC5/core_cm3.h **** 
  34:Generated_Source\PSoC5/core_cm3.h **** #include <stdint.h>
  35:Generated_Source\PSoC5/core_cm3.h **** 
  36:Generated_Source\PSoC5/core_cm3.h **** #ifdef __cplusplus
  37:Generated_Source\PSoC5/core_cm3.h ****  extern "C" {
  38:Generated_Source\PSoC5/core_cm3.h **** #endif
  39:Generated_Source\PSoC5/core_cm3.h **** 
  40:Generated_Source\PSoC5/core_cm3.h **** /**
  41:Generated_Source\PSoC5/core_cm3.h ****   \page CMSIS_MISRA_Exceptions  MISRA-C:2004 Compliance Exceptions
  42:Generated_Source\PSoC5/core_cm3.h ****   CMSIS violates the following MISRA-C:2004 rules:
  43:Generated_Source\PSoC5/core_cm3.h **** 
  44:Generated_Source\PSoC5/core_cm3.h ****    \li Required Rule 8.5, object/function definition in header file.<br>
  45:Generated_Source\PSoC5/core_cm3.h ****      Function definitions in header files are used to allow 'inlining'.
  46:Generated_Source\PSoC5/core_cm3.h **** 
  47:Generated_Source\PSoC5/core_cm3.h ****    \li Required Rule 18.4, declaration of union type or object of union type: '{...}'.<br>
  48:Generated_Source\PSoC5/core_cm3.h ****      Unions are used for effective representation of core registers.
  49:Generated_Source\PSoC5/core_cm3.h **** 
  50:Generated_Source\PSoC5/core_cm3.h ****    \li Advisory Rule 19.7, Function-like macro defined.<br>
  51:Generated_Source\PSoC5/core_cm3.h ****      Function-like macros are used to allow more efficient code.
  52:Generated_Source\PSoC5/core_cm3.h ****  */
  53:Generated_Source\PSoC5/core_cm3.h **** 
  54:Generated_Source\PSoC5/core_cm3.h **** 
  55:Generated_Source\PSoC5/core_cm3.h **** /*******************************************************************************
  56:Generated_Source\PSoC5/core_cm3.h ****  *                 CMSIS definitions
  57:Generated_Source\PSoC5/core_cm3.h ****  ******************************************************************************/
  58:Generated_Source\PSoC5/core_cm3.h **** /**
  59:Generated_Source\PSoC5/core_cm3.h ****   \ingroup Cortex_M3
  60:Generated_Source\PSoC5/core_cm3.h ****   @{
  61:Generated_Source\PSoC5/core_cm3.h ****  */
  62:Generated_Source\PSoC5/core_cm3.h **** 
ARM GAS  C:\Users\manuelfu\AppData\Local\Temp\ccrlKxnK.s 			page 4


  63:Generated_Source\PSoC5/core_cm3.h **** /*  CMSIS CM3 definitions */
  64:Generated_Source\PSoC5/core_cm3.h **** #define __CM3_CMSIS_VERSION_MAIN  ( 5U)                                  /*!< [31:16] CMSIS HAL mai
  65:Generated_Source\PSoC5/core_cm3.h **** #define __CM3_CMSIS_VERSION_SUB   ( 0U)                                  /*!< [15:0]  CMSIS HAL sub
  66:Generated_Source\PSoC5/core_cm3.h **** #define __CM3_CMSIS_VERSION       ((__CM3_CMSIS_VERSION_MAIN << 16U) | \
  67:Generated_Source\PSoC5/core_cm3.h ****                                     __CM3_CMSIS_VERSION_SUB           )  /*!< CMSIS HAL version num
  68:Generated_Source\PSoC5/core_cm3.h **** 
  69:Generated_Source\PSoC5/core_cm3.h **** #define __CORTEX_M                (3U)                                   /*!< Cortex-M Core */
  70:Generated_Source\PSoC5/core_cm3.h **** 
  71:Generated_Source\PSoC5/core_cm3.h **** /** __FPU_USED indicates whether an FPU is used or not.
  72:Generated_Source\PSoC5/core_cm3.h ****     This core does not support an FPU at all
  73:Generated_Source\PSoC5/core_cm3.h **** */
  74:Generated_Source\PSoC5/core_cm3.h **** #define __FPU_USED       0U
  75:Generated_Source\PSoC5/core_cm3.h **** 
  76:Generated_Source\PSoC5/core_cm3.h **** #if defined ( __CC_ARM )
  77:Generated_Source\PSoC5/core_cm3.h ****   #if defined __TARGET_FPU_VFP
  78:Generated_Source\PSoC5/core_cm3.h ****     #error "Compiler generates FPU instructions for a device without an FPU (check __FPU_PRESENT)"
  79:Generated_Source\PSoC5/core_cm3.h ****   #endif
  80:Generated_Source\PSoC5/core_cm3.h **** 
  81:Generated_Source\PSoC5/core_cm3.h **** #elif defined (__ARMCC_VERSION) && (__ARMCC_VERSION >= 6010050)
  82:Generated_Source\PSoC5/core_cm3.h ****   #if defined __ARM_PCS_VFP
  83:Generated_Source\PSoC5/core_cm3.h ****     #error "Compiler generates FPU instructions for a device without an FPU (check __FPU_PRESENT)"
  84:Generated_Source\PSoC5/core_cm3.h ****   #endif
  85:Generated_Source\PSoC5/core_cm3.h **** 
  86:Generated_Source\PSoC5/core_cm3.h **** #elif defined ( __GNUC__ )
  87:Generated_Source\PSoC5/core_cm3.h ****   #if defined (__VFP_FP__) && !defined(__SOFTFP__)
  88:Generated_Source\PSoC5/core_cm3.h ****     #error "Compiler generates FPU instructions for a device without an FPU (check __FPU_PRESENT)"
  89:Generated_Source\PSoC5/core_cm3.h ****   #endif
  90:Generated_Source\PSoC5/core_cm3.h **** 
  91:Generated_Source\PSoC5/core_cm3.h **** #elif defined ( __ICCARM__ )
  92:Generated_Source\PSoC5/core_cm3.h ****   #if defined __ARMVFP__
  93:Generated_Source\PSoC5/core_cm3.h ****     #error "Compiler generates FPU instructions for a device without an FPU (check __FPU_PRESENT)"
  94:Generated_Source\PSoC5/core_cm3.h ****   #endif
  95:Generated_Source\PSoC5/core_cm3.h **** 
  96:Generated_Source\PSoC5/core_cm3.h **** #elif defined ( __TI_ARM__ )
  97:Generated_Source\PSoC5/core_cm3.h ****   #if defined __TI_VFP_SUPPORT__
  98:Generated_Source\PSoC5/core_cm3.h ****     #error "Compiler generates FPU instructions for a device without an FPU (check __FPU_PRESENT)"
  99:Generated_Source\PSoC5/core_cm3.h ****   #endif
 100:Generated_Source\PSoC5/core_cm3.h **** 
 101:Generated_Source\PSoC5/core_cm3.h **** #elif defined ( __TASKING__ )
 102:Generated_Source\PSoC5/core_cm3.h ****   #if defined __FPU_VFP__
 103:Generated_Source\PSoC5/core_cm3.h ****     #error "Compiler generates FPU instructions for a device without an FPU (check __FPU_PRESENT)"
 104:Generated_Source\PSoC5/core_cm3.h ****   #endif
 105:Generated_Source\PSoC5/core_cm3.h **** 
 106:Generated_Source\PSoC5/core_cm3.h **** #elif defined ( __CSMC__ )
 107:Generated_Source\PSoC5/core_cm3.h ****   #if ( __CSMC__ & 0x400U)
 108:Generated_Source\PSoC5/core_cm3.h ****     #error "Compiler generates FPU instructions for a device without an FPU (check __FPU_PRESENT)"
 109:Generated_Source\PSoC5/core_cm3.h ****   #endif
 110:Generated_Source\PSoC5/core_cm3.h **** 
 111:Generated_Source\PSoC5/core_cm3.h **** #endif
 112:Generated_Source\PSoC5/core_cm3.h **** 
 113:Generated_Source\PSoC5/core_cm3.h **** #include "cmsis_compiler.h"               /* CMSIS compiler specific defines */
 114:Generated_Source\PSoC5/core_cm3.h **** 
 115:Generated_Source\PSoC5/core_cm3.h **** 
 116:Generated_Source\PSoC5/core_cm3.h **** #ifdef __cplusplus
 117:Generated_Source\PSoC5/core_cm3.h **** }
 118:Generated_Source\PSoC5/core_cm3.h **** #endif
 119:Generated_Source\PSoC5/core_cm3.h **** 
ARM GAS  C:\Users\manuelfu\AppData\Local\Temp\ccrlKxnK.s 			page 5


 120:Generated_Source\PSoC5/core_cm3.h **** #endif /* __CORE_CM3_H_GENERIC */
 121:Generated_Source\PSoC5/core_cm3.h **** 
 122:Generated_Source\PSoC5/core_cm3.h **** #ifndef __CMSIS_GENERIC
 123:Generated_Source\PSoC5/core_cm3.h **** 
 124:Generated_Source\PSoC5/core_cm3.h **** #ifndef __CORE_CM3_H_DEPENDANT
 125:Generated_Source\PSoC5/core_cm3.h **** #define __CORE_CM3_H_DEPENDANT
 126:Generated_Source\PSoC5/core_cm3.h **** 
 127:Generated_Source\PSoC5/core_cm3.h **** #ifdef __cplusplus
 128:Generated_Source\PSoC5/core_cm3.h ****  extern "C" {
 129:Generated_Source\PSoC5/core_cm3.h **** #endif
 130:Generated_Source\PSoC5/core_cm3.h **** 
 131:Generated_Source\PSoC5/core_cm3.h **** /* check device defines and use defaults */
 132:Generated_Source\PSoC5/core_cm3.h **** #if defined __CHECK_DEVICE_DEFINES
 133:Generated_Source\PSoC5/core_cm3.h ****   #ifndef __CM3_REV
 134:Generated_Source\PSoC5/core_cm3.h ****     #define __CM3_REV               0x0200U
 135:Generated_Source\PSoC5/core_cm3.h ****     #warning "__CM3_REV not defined in device header file; using default!"
 136:Generated_Source\PSoC5/core_cm3.h ****   #endif
 137:Generated_Source\PSoC5/core_cm3.h **** 
 138:Generated_Source\PSoC5/core_cm3.h ****   #ifndef __MPU_PRESENT
 139:Generated_Source\PSoC5/core_cm3.h ****     #define __MPU_PRESENT             0U
 140:Generated_Source\PSoC5/core_cm3.h ****     #warning "__MPU_PRESENT not defined in device header file; using default!"
 141:Generated_Source\PSoC5/core_cm3.h ****   #endif
 142:Generated_Source\PSoC5/core_cm3.h **** 
 143:Generated_Source\PSoC5/core_cm3.h ****   #ifndef __NVIC_PRIO_BITS
 144:Generated_Source\PSoC5/core_cm3.h ****     #define __NVIC_PRIO_BITS          3U
 145:Generated_Source\PSoC5/core_cm3.h ****     #warning "__NVIC_PRIO_BITS not defined in device header file; using default!"
 146:Generated_Source\PSoC5/core_cm3.h ****   #endif
 147:Generated_Source\PSoC5/core_cm3.h **** 
 148:Generated_Source\PSoC5/core_cm3.h ****   #ifndef __Vendor_SysTickConfig
 149:Generated_Source\PSoC5/core_cm3.h ****     #define __Vendor_SysTickConfig    0U
 150:Generated_Source\PSoC5/core_cm3.h ****     #warning "__Vendor_SysTickConfig not defined in device header file; using default!"
 151:Generated_Source\PSoC5/core_cm3.h ****   #endif
 152:Generated_Source\PSoC5/core_cm3.h **** #endif
 153:Generated_Source\PSoC5/core_cm3.h **** 
 154:Generated_Source\PSoC5/core_cm3.h **** /* IO definitions (access restrictions to peripheral registers) */
 155:Generated_Source\PSoC5/core_cm3.h **** /**
 156:Generated_Source\PSoC5/core_cm3.h ****     \defgroup CMSIS_glob_defs CMSIS Global Defines
 157:Generated_Source\PSoC5/core_cm3.h **** 
 158:Generated_Source\PSoC5/core_cm3.h ****     <strong>IO Type Qualifiers</strong> are used
 159:Generated_Source\PSoC5/core_cm3.h ****     \li to specify the access to peripheral variables.
 160:Generated_Source\PSoC5/core_cm3.h ****     \li for automatic generation of peripheral register debug information.
 161:Generated_Source\PSoC5/core_cm3.h **** */
 162:Generated_Source\PSoC5/core_cm3.h **** #ifdef __cplusplus
 163:Generated_Source\PSoC5/core_cm3.h ****   #define   __I     volatile             /*!< Defines 'read only' permissions */
 164:Generated_Source\PSoC5/core_cm3.h **** #else
 165:Generated_Source\PSoC5/core_cm3.h ****   #define   __I     volatile const       /*!< Defines 'read only' permissions */
 166:Generated_Source\PSoC5/core_cm3.h **** #endif
 167:Generated_Source\PSoC5/core_cm3.h **** #define     __O     volatile             /*!< Defines 'write only' permissions */
 168:Generated_Source\PSoC5/core_cm3.h **** #define     __IO    volatile             /*!< Defines 'read / write' permissions */
 169:Generated_Source\PSoC5/core_cm3.h **** 
 170:Generated_Source\PSoC5/core_cm3.h **** /* following defines should be used for structure members */
 171:Generated_Source\PSoC5/core_cm3.h **** #define     __IM     volatile const      /*! Defines 'read only' structure member permissions */
 172:Generated_Source\PSoC5/core_cm3.h **** #define     __OM     volatile            /*! Defines 'write only' structure member permissions */
 173:Generated_Source\PSoC5/core_cm3.h **** #define     __IOM    volatile            /*! Defines 'read / write' structure member permissions */
 174:Generated_Source\PSoC5/core_cm3.h **** 
 175:Generated_Source\PSoC5/core_cm3.h **** /*@} end of group Cortex_M3 */
 176:Generated_Source\PSoC5/core_cm3.h **** 
ARM GAS  C:\Users\manuelfu\AppData\Local\Temp\ccrlKxnK.s 			page 6


 177:Generated_Source\PSoC5/core_cm3.h **** 
 178:Generated_Source\PSoC5/core_cm3.h **** 
 179:Generated_Source\PSoC5/core_cm3.h **** /*******************************************************************************
 180:Generated_Source\PSoC5/core_cm3.h ****  *                 Register Abstraction
 181:Generated_Source\PSoC5/core_cm3.h ****   Core Register contain:
 182:Generated_Source\PSoC5/core_cm3.h ****   - Core Register
 183:Generated_Source\PSoC5/core_cm3.h ****   - Core NVIC Register
 184:Generated_Source\PSoC5/core_cm3.h ****   - Core SCB Register
 185:Generated_Source\PSoC5/core_cm3.h ****   - Core SysTick Register
 186:Generated_Source\PSoC5/core_cm3.h ****   - Core Debug Register
 187:Generated_Source\PSoC5/core_cm3.h ****   - Core MPU Register
 188:Generated_Source\PSoC5/core_cm3.h ****  ******************************************************************************/
 189:Generated_Source\PSoC5/core_cm3.h **** /**
 190:Generated_Source\PSoC5/core_cm3.h ****   \defgroup CMSIS_core_register Defines and Type Definitions
 191:Generated_Source\PSoC5/core_cm3.h ****   \brief Type definitions and defines for Cortex-M processor based devices.
 192:Generated_Source\PSoC5/core_cm3.h **** */
 193:Generated_Source\PSoC5/core_cm3.h **** 
 194:Generated_Source\PSoC5/core_cm3.h **** /**
 195:Generated_Source\PSoC5/core_cm3.h ****   \ingroup    CMSIS_core_register
 196:Generated_Source\PSoC5/core_cm3.h ****   \defgroup   CMSIS_CORE  Status and Control Registers
 197:Generated_Source\PSoC5/core_cm3.h ****   \brief      Core Register type definitions.
 198:Generated_Source\PSoC5/core_cm3.h ****   @{
 199:Generated_Source\PSoC5/core_cm3.h ****  */
 200:Generated_Source\PSoC5/core_cm3.h **** 
 201:Generated_Source\PSoC5/core_cm3.h **** /**
 202:Generated_Source\PSoC5/core_cm3.h ****   \brief  Union type to access the Application Program Status Register (APSR).
 203:Generated_Source\PSoC5/core_cm3.h ****  */
 204:Generated_Source\PSoC5/core_cm3.h **** typedef union
 205:Generated_Source\PSoC5/core_cm3.h **** {
 206:Generated_Source\PSoC5/core_cm3.h ****   struct
 207:Generated_Source\PSoC5/core_cm3.h ****   {
 208:Generated_Source\PSoC5/core_cm3.h ****     uint32_t _reserved0:27;              /*!< bit:  0..26  Reserved */
 209:Generated_Source\PSoC5/core_cm3.h ****     uint32_t Q:1;                        /*!< bit:     27  Saturation condition flag */
 210:Generated_Source\PSoC5/core_cm3.h ****     uint32_t V:1;                        /*!< bit:     28  Overflow condition code flag */
 211:Generated_Source\PSoC5/core_cm3.h ****     uint32_t C:1;                        /*!< bit:     29  Carry condition code flag */
 212:Generated_Source\PSoC5/core_cm3.h ****     uint32_t Z:1;                        /*!< bit:     30  Zero condition code flag */
 213:Generated_Source\PSoC5/core_cm3.h ****     uint32_t N:1;                        /*!< bit:     31  Negative condition code flag */
 214:Generated_Source\PSoC5/core_cm3.h ****   } b;                                   /*!< Structure used for bit  access */
 215:Generated_Source\PSoC5/core_cm3.h ****   uint32_t w;                            /*!< Type      used for word access */
 216:Generated_Source\PSoC5/core_cm3.h **** } APSR_Type;
 217:Generated_Source\PSoC5/core_cm3.h **** 
 218:Generated_Source\PSoC5/core_cm3.h **** /* APSR Register Definitions */
 219:Generated_Source\PSoC5/core_cm3.h **** #define APSR_N_Pos                         31U                                            /*!< APSR
 220:Generated_Source\PSoC5/core_cm3.h **** #define APSR_N_Msk                         (1UL << APSR_N_Pos)                            /*!< APSR
 221:Generated_Source\PSoC5/core_cm3.h **** 
 222:Generated_Source\PSoC5/core_cm3.h **** #define APSR_Z_Pos                         30U                                            /*!< APSR
 223:Generated_Source\PSoC5/core_cm3.h **** #define APSR_Z_Msk                         (1UL << APSR_Z_Pos)                            /*!< APSR
 224:Generated_Source\PSoC5/core_cm3.h **** 
 225:Generated_Source\PSoC5/core_cm3.h **** #define APSR_C_Pos                         29U                                            /*!< APSR
 226:Generated_Source\PSoC5/core_cm3.h **** #define APSR_C_Msk                         (1UL << APSR_C_Pos)                            /*!< APSR
 227:Generated_Source\PSoC5/core_cm3.h **** 
 228:Generated_Source\PSoC5/core_cm3.h **** #define APSR_V_Pos                         28U                                            /*!< APSR
 229:Generated_Source\PSoC5/core_cm3.h **** #define APSR_V_Msk                         (1UL << APSR_V_Pos)                            /*!< APSR
 230:Generated_Source\PSoC5/core_cm3.h **** 
 231:Generated_Source\PSoC5/core_cm3.h **** #define APSR_Q_Pos                         27U                                            /*!< APSR
 232:Generated_Source\PSoC5/core_cm3.h **** #define APSR_Q_Msk                         (1UL << APSR_Q_Pos)                            /*!< APSR
 233:Generated_Source\PSoC5/core_cm3.h **** 
ARM GAS  C:\Users\manuelfu\AppData\Local\Temp\ccrlKxnK.s 			page 7


 234:Generated_Source\PSoC5/core_cm3.h **** 
 235:Generated_Source\PSoC5/core_cm3.h **** /**
 236:Generated_Source\PSoC5/core_cm3.h ****   \brief  Union type to access the Interrupt Program Status Register (IPSR).
 237:Generated_Source\PSoC5/core_cm3.h ****  */
 238:Generated_Source\PSoC5/core_cm3.h **** typedef union
 239:Generated_Source\PSoC5/core_cm3.h **** {
 240:Generated_Source\PSoC5/core_cm3.h ****   struct
 241:Generated_Source\PSoC5/core_cm3.h ****   {
 242:Generated_Source\PSoC5/core_cm3.h ****     uint32_t ISR:9;                      /*!< bit:  0.. 8  Exception number */
 243:Generated_Source\PSoC5/core_cm3.h ****     uint32_t _reserved0:23;              /*!< bit:  9..31  Reserved */
 244:Generated_Source\PSoC5/core_cm3.h ****   } b;                                   /*!< Structure used for bit  access */
 245:Generated_Source\PSoC5/core_cm3.h ****   uint32_t w;                            /*!< Type      used for word access */
 246:Generated_Source\PSoC5/core_cm3.h **** } IPSR_Type;
 247:Generated_Source\PSoC5/core_cm3.h **** 
 248:Generated_Source\PSoC5/core_cm3.h **** /* IPSR Register Definitions */
 249:Generated_Source\PSoC5/core_cm3.h **** #define IPSR_ISR_Pos                        0U                                            /*!< IPSR
 250:Generated_Source\PSoC5/core_cm3.h **** #define IPSR_ISR_Msk                       (0x1FFUL /*<< IPSR_ISR_Pos*/)                  /*!< IPSR
 251:Generated_Source\PSoC5/core_cm3.h **** 
 252:Generated_Source\PSoC5/core_cm3.h **** 
 253:Generated_Source\PSoC5/core_cm3.h **** /**
 254:Generated_Source\PSoC5/core_cm3.h ****   \brief  Union type to access the Special-Purpose Program Status Registers (xPSR).
 255:Generated_Source\PSoC5/core_cm3.h ****  */
 256:Generated_Source\PSoC5/core_cm3.h **** typedef union
 257:Generated_Source\PSoC5/core_cm3.h **** {
 258:Generated_Source\PSoC5/core_cm3.h ****   struct
 259:Generated_Source\PSoC5/core_cm3.h ****   {
 260:Generated_Source\PSoC5/core_cm3.h ****     uint32_t ISR:9;                      /*!< bit:  0.. 8  Exception number */
 261:Generated_Source\PSoC5/core_cm3.h ****     uint32_t _reserved0:1;               /*!< bit:      9  Reserved */
 262:Generated_Source\PSoC5/core_cm3.h ****     uint32_t ICI_IT_1:6;                 /*!< bit: 10..15  ICI/IT part 1 */
 263:Generated_Source\PSoC5/core_cm3.h ****     uint32_t _reserved1:8;               /*!< bit: 16..23  Reserved */
 264:Generated_Source\PSoC5/core_cm3.h ****     uint32_t T:1;                        /*!< bit:     24  Thumb bit */
 265:Generated_Source\PSoC5/core_cm3.h ****     uint32_t ICI_IT_2:2;                 /*!< bit: 25..26  ICI/IT part 2 */
 266:Generated_Source\PSoC5/core_cm3.h ****     uint32_t Q:1;                        /*!< bit:     27  Saturation condition flag */
 267:Generated_Source\PSoC5/core_cm3.h ****     uint32_t V:1;                        /*!< bit:     28  Overflow condition code flag */
 268:Generated_Source\PSoC5/core_cm3.h ****     uint32_t C:1;                        /*!< bit:     29  Carry condition code flag */
 269:Generated_Source\PSoC5/core_cm3.h ****     uint32_t Z:1;                        /*!< bit:     30  Zero condition code flag */
 270:Generated_Source\PSoC5/core_cm3.h ****     uint32_t N:1;                        /*!< bit:     31  Negative condition code flag */
 271:Generated_Source\PSoC5/core_cm3.h ****   } b;                                   /*!< Structure used for bit  access */
 272:Generated_Source\PSoC5/core_cm3.h ****   uint32_t w;                            /*!< Type      used for word access */
 273:Generated_Source\PSoC5/core_cm3.h **** } xPSR_Type;
 274:Generated_Source\PSoC5/core_cm3.h **** 
 275:Generated_Source\PSoC5/core_cm3.h **** /* xPSR Register Definitions */
 276:Generated_Source\PSoC5/core_cm3.h **** #define xPSR_N_Pos                         31U                                            /*!< xPSR
 277:Generated_Source\PSoC5/core_cm3.h **** #define xPSR_N_Msk                         (1UL << xPSR_N_Pos)                            /*!< xPSR
 278:Generated_Source\PSoC5/core_cm3.h **** 
 279:Generated_Source\PSoC5/core_cm3.h **** #define xPSR_Z_Pos                         30U                                            /*!< xPSR
 280:Generated_Source\PSoC5/core_cm3.h **** #define xPSR_Z_Msk                         (1UL << xPSR_Z_Pos)                            /*!< xPSR
 281:Generated_Source\PSoC5/core_cm3.h **** 
 282:Generated_Source\PSoC5/core_cm3.h **** #define xPSR_C_Pos                         29U                                            /*!< xPSR
 283:Generated_Source\PSoC5/core_cm3.h **** #define xPSR_C_Msk                         (1UL << xPSR_C_Pos)                            /*!< xPSR
 284:Generated_Source\PSoC5/core_cm3.h **** 
 285:Generated_Source\PSoC5/core_cm3.h **** #define xPSR_V_Pos                         28U                                            /*!< xPSR
 286:Generated_Source\PSoC5/core_cm3.h **** #define xPSR_V_Msk                         (1UL << xPSR_V_Pos)                            /*!< xPSR
 287:Generated_Source\PSoC5/core_cm3.h **** 
 288:Generated_Source\PSoC5/core_cm3.h **** #define xPSR_Q_Pos                         27U                                            /*!< xPSR
 289:Generated_Source\PSoC5/core_cm3.h **** #define xPSR_Q_Msk                         (1UL << xPSR_Q_Pos)                            /*!< xPSR
 290:Generated_Source\PSoC5/core_cm3.h **** 
ARM GAS  C:\Users\manuelfu\AppData\Local\Temp\ccrlKxnK.s 			page 8


 291:Generated_Source\PSoC5/core_cm3.h **** #define xPSR_ICI_IT_2_Pos                  25U                                            /*!< xPSR
 292:Generated_Source\PSoC5/core_cm3.h **** #define xPSR_ICI_IT_2_Msk                  (3UL << xPSR_ICI_IT_2_Pos)                     /*!< xPSR
 293:Generated_Source\PSoC5/core_cm3.h **** 
 294:Generated_Source\PSoC5/core_cm3.h **** #define xPSR_T_Pos                         24U                                            /*!< xPSR
 295:Generated_Source\PSoC5/core_cm3.h **** #define xPSR_T_Msk                         (1UL << xPSR_T_Pos)                            /*!< xPSR
 296:Generated_Source\PSoC5/core_cm3.h **** 
 297:Generated_Source\PSoC5/core_cm3.h **** #define xPSR_ICI_IT_1_Pos                  10U                                            /*!< xPSR
 298:Generated_Source\PSoC5/core_cm3.h **** #define xPSR_ICI_IT_1_Msk                  (0x3FUL << xPSR_ICI_IT_1_Pos)                  /*!< xPSR
 299:Generated_Source\PSoC5/core_cm3.h **** 
 300:Generated_Source\PSoC5/core_cm3.h **** #define xPSR_ISR_Pos                        0U                                            /*!< xPSR
 301:Generated_Source\PSoC5/core_cm3.h **** #define xPSR_ISR_Msk                       (0x1FFUL /*<< xPSR_ISR_Pos*/)                  /*!< xPSR
 302:Generated_Source\PSoC5/core_cm3.h **** 
 303:Generated_Source\PSoC5/core_cm3.h **** 
 304:Generated_Source\PSoC5/core_cm3.h **** /**
 305:Generated_Source\PSoC5/core_cm3.h ****   \brief  Union type to access the Control Registers (CONTROL).
 306:Generated_Source\PSoC5/core_cm3.h ****  */
 307:Generated_Source\PSoC5/core_cm3.h **** typedef union
 308:Generated_Source\PSoC5/core_cm3.h **** {
 309:Generated_Source\PSoC5/core_cm3.h ****   struct
 310:Generated_Source\PSoC5/core_cm3.h ****   {
 311:Generated_Source\PSoC5/core_cm3.h ****     uint32_t nPRIV:1;                    /*!< bit:      0  Execution privilege in Thread mode */
 312:Generated_Source\PSoC5/core_cm3.h ****     uint32_t SPSEL:1;                    /*!< bit:      1  Stack to be used */
 313:Generated_Source\PSoC5/core_cm3.h ****     uint32_t _reserved1:30;              /*!< bit:  2..31  Reserved */
 314:Generated_Source\PSoC5/core_cm3.h ****   } b;                                   /*!< Structure used for bit  access */
 315:Generated_Source\PSoC5/core_cm3.h ****   uint32_t w;                            /*!< Type      used for word access */
 316:Generated_Source\PSoC5/core_cm3.h **** } CONTROL_Type;
 317:Generated_Source\PSoC5/core_cm3.h **** 
 318:Generated_Source\PSoC5/core_cm3.h **** /* CONTROL Register Definitions */
 319:Generated_Source\PSoC5/core_cm3.h **** #define CONTROL_SPSEL_Pos                   1U                                            /*!< CONT
 320:Generated_Source\PSoC5/core_cm3.h **** #define CONTROL_SPSEL_Msk                  (1UL << CONTROL_SPSEL_Pos)                     /*!< CONT
 321:Generated_Source\PSoC5/core_cm3.h **** 
 322:Generated_Source\PSoC5/core_cm3.h **** #define CONTROL_nPRIV_Pos                   0U                                            /*!< CONT
 323:Generated_Source\PSoC5/core_cm3.h **** #define CONTROL_nPRIV_Msk                  (1UL /*<< CONTROL_nPRIV_Pos*/)                 /*!< CONT
 324:Generated_Source\PSoC5/core_cm3.h **** 
 325:Generated_Source\PSoC5/core_cm3.h **** /*@} end of group CMSIS_CORE */
 326:Generated_Source\PSoC5/core_cm3.h **** 
 327:Generated_Source\PSoC5/core_cm3.h **** 
 328:Generated_Source\PSoC5/core_cm3.h **** /**
 329:Generated_Source\PSoC5/core_cm3.h ****   \ingroup    CMSIS_core_register
 330:Generated_Source\PSoC5/core_cm3.h ****   \defgroup   CMSIS_NVIC  Nested Vectored Interrupt Controller (NVIC)
 331:Generated_Source\PSoC5/core_cm3.h ****   \brief      Type definitions for the NVIC Registers
 332:Generated_Source\PSoC5/core_cm3.h ****   @{
 333:Generated_Source\PSoC5/core_cm3.h ****  */
 334:Generated_Source\PSoC5/core_cm3.h **** 
 335:Generated_Source\PSoC5/core_cm3.h **** /**
 336:Generated_Source\PSoC5/core_cm3.h ****   \brief  Structure type to access the Nested Vectored Interrupt Controller (NVIC).
 337:Generated_Source\PSoC5/core_cm3.h ****  */
 338:Generated_Source\PSoC5/core_cm3.h **** typedef struct
 339:Generated_Source\PSoC5/core_cm3.h **** {
 340:Generated_Source\PSoC5/core_cm3.h ****   __IOM uint32_t ISER[8U];               /*!< Offset: 0x000 (R/W)  Interrupt Set Enable Register */
 341:Generated_Source\PSoC5/core_cm3.h ****         uint32_t RESERVED0[24U];
 342:Generated_Source\PSoC5/core_cm3.h ****   __IOM uint32_t ICER[8U];               /*!< Offset: 0x080 (R/W)  Interrupt Clear Enable Register 
 343:Generated_Source\PSoC5/core_cm3.h ****         uint32_t RSERVED1[24U];
 344:Generated_Source\PSoC5/core_cm3.h ****   __IOM uint32_t ISPR[8U];               /*!< Offset: 0x100 (R/W)  Interrupt Set Pending Register *
 345:Generated_Source\PSoC5/core_cm3.h ****         uint32_t RESERVED2[24U];
 346:Generated_Source\PSoC5/core_cm3.h ****   __IOM uint32_t ICPR[8U];               /*!< Offset: 0x180 (R/W)  Interrupt Clear Pending Register
 347:Generated_Source\PSoC5/core_cm3.h ****         uint32_t RESERVED3[24U];
ARM GAS  C:\Users\manuelfu\AppData\Local\Temp\ccrlKxnK.s 			page 9


 348:Generated_Source\PSoC5/core_cm3.h ****   __IOM uint32_t IABR[8U];               /*!< Offset: 0x200 (R/W)  Interrupt Active bit Register */
 349:Generated_Source\PSoC5/core_cm3.h ****         uint32_t RESERVED4[56U];
 350:Generated_Source\PSoC5/core_cm3.h ****   __IOM uint8_t  IP[240U];               /*!< Offset: 0x300 (R/W)  Interrupt Priority Register (8Bi
 351:Generated_Source\PSoC5/core_cm3.h ****         uint32_t RESERVED5[644U];
 352:Generated_Source\PSoC5/core_cm3.h ****   __OM  uint32_t STIR;                   /*!< Offset: 0xE00 ( /W)  Software Trigger Interrupt Regis
 353:Generated_Source\PSoC5/core_cm3.h **** }  NVIC_Type;
 354:Generated_Source\PSoC5/core_cm3.h **** 
 355:Generated_Source\PSoC5/core_cm3.h **** /* Software Triggered Interrupt Register Definitions */
 356:Generated_Source\PSoC5/core_cm3.h **** #define NVIC_STIR_INTID_Pos                 0U                                         /*!< STIR: I
 357:Generated_Source\PSoC5/core_cm3.h **** #define NVIC_STIR_INTID_Msk                (0x1FFUL /*<< NVIC_STIR_INTID_Pos*/)        /*!< STIR: I
 358:Generated_Source\PSoC5/core_cm3.h **** 
 359:Generated_Source\PSoC5/core_cm3.h **** /*@} end of group CMSIS_NVIC */
 360:Generated_Source\PSoC5/core_cm3.h **** 
 361:Generated_Source\PSoC5/core_cm3.h **** 
 362:Generated_Source\PSoC5/core_cm3.h **** /**
 363:Generated_Source\PSoC5/core_cm3.h ****   \ingroup  CMSIS_core_register
 364:Generated_Source\PSoC5/core_cm3.h ****   \defgroup CMSIS_SCB     System Control Block (SCB)
 365:Generated_Source\PSoC5/core_cm3.h ****   \brief    Type definitions for the System Control Block Registers
 366:Generated_Source\PSoC5/core_cm3.h ****   @{
 367:Generated_Source\PSoC5/core_cm3.h ****  */
 368:Generated_Source\PSoC5/core_cm3.h **** 
 369:Generated_Source\PSoC5/core_cm3.h **** /**
 370:Generated_Source\PSoC5/core_cm3.h ****   \brief  Structure type to access the System Control Block (SCB).
 371:Generated_Source\PSoC5/core_cm3.h ****  */
 372:Generated_Source\PSoC5/core_cm3.h **** typedef struct
 373:Generated_Source\PSoC5/core_cm3.h **** {
 374:Generated_Source\PSoC5/core_cm3.h ****   __IM  uint32_t CPUID;                  /*!< Offset: 0x000 (R/ )  CPUID Base Register */
 375:Generated_Source\PSoC5/core_cm3.h ****   __IOM uint32_t ICSR;                   /*!< Offset: 0x004 (R/W)  Interrupt Control and State Regi
 376:Generated_Source\PSoC5/core_cm3.h ****   __IOM uint32_t VTOR;                   /*!< Offset: 0x008 (R/W)  Vector Table Offset Register */
 377:Generated_Source\PSoC5/core_cm3.h ****   __IOM uint32_t AIRCR;                  /*!< Offset: 0x00C (R/W)  Application Interrupt and Reset 
 378:Generated_Source\PSoC5/core_cm3.h ****   __IOM uint32_t SCR;                    /*!< Offset: 0x010 (R/W)  System Control Register */
 379:Generated_Source\PSoC5/core_cm3.h ****   __IOM uint32_t CCR;                    /*!< Offset: 0x014 (R/W)  Configuration Control Register *
 380:Generated_Source\PSoC5/core_cm3.h ****   __IOM uint8_t  SHP[12U];               /*!< Offset: 0x018 (R/W)  System Handlers Priority Registe
 381:Generated_Source\PSoC5/core_cm3.h ****   __IOM uint32_t SHCSR;                  /*!< Offset: 0x024 (R/W)  System Handler Control and State
 382:Generated_Source\PSoC5/core_cm3.h ****   __IOM uint32_t CFSR;                   /*!< Offset: 0x028 (R/W)  Configurable Fault Status Regist
 383:Generated_Source\PSoC5/core_cm3.h ****   __IOM uint32_t HFSR;                   /*!< Offset: 0x02C (R/W)  HardFault Status Register */
 384:Generated_Source\PSoC5/core_cm3.h ****   __IOM uint32_t DFSR;                   /*!< Offset: 0x030 (R/W)  Debug Fault Status Register */
 385:Generated_Source\PSoC5/core_cm3.h ****   __IOM uint32_t MMFAR;                  /*!< Offset: 0x034 (R/W)  MemManage Fault Address Register
 386:Generated_Source\PSoC5/core_cm3.h ****   __IOM uint32_t BFAR;                   /*!< Offset: 0x038 (R/W)  BusFault Address Register */
 387:Generated_Source\PSoC5/core_cm3.h ****   __IOM uint32_t AFSR;                   /*!< Offset: 0x03C (R/W)  Auxiliary Fault Status Register 
 388:Generated_Source\PSoC5/core_cm3.h ****   __IM  uint32_t PFR[2U];                /*!< Offset: 0x040 (R/ )  Processor Feature Register */
 389:Generated_Source\PSoC5/core_cm3.h ****   __IM  uint32_t DFR;                    /*!< Offset: 0x048 (R/ )  Debug Feature Register */
 390:Generated_Source\PSoC5/core_cm3.h ****   __IM  uint32_t ADR;                    /*!< Offset: 0x04C (R/ )  Auxiliary Feature Register */
 391:Generated_Source\PSoC5/core_cm3.h ****   __IM  uint32_t MMFR[4U];               /*!< Offset: 0x050 (R/ )  Memory Model Feature Register */
 392:Generated_Source\PSoC5/core_cm3.h ****   __IM  uint32_t ISAR[5U];               /*!< Offset: 0x060 (R/ )  Instruction Set Attributes Regis
 393:Generated_Source\PSoC5/core_cm3.h ****         uint32_t RESERVED0[5U];
 394:Generated_Source\PSoC5/core_cm3.h ****   __IOM uint32_t CPACR;                  /*!< Offset: 0x088 (R/W)  Coprocessor Access Control Regis
 395:Generated_Source\PSoC5/core_cm3.h **** } SCB_Type;
 396:Generated_Source\PSoC5/core_cm3.h **** 
 397:Generated_Source\PSoC5/core_cm3.h **** /* SCB CPUID Register Definitions */
 398:Generated_Source\PSoC5/core_cm3.h **** #define SCB_CPUID_IMPLEMENTER_Pos          24U                                            /*!< SCB 
 399:Generated_Source\PSoC5/core_cm3.h **** #define SCB_CPUID_IMPLEMENTER_Msk          (0xFFUL << SCB_CPUID_IMPLEMENTER_Pos)          /*!< SCB 
 400:Generated_Source\PSoC5/core_cm3.h **** 
 401:Generated_Source\PSoC5/core_cm3.h **** #define SCB_CPUID_VARIANT_Pos              20U                                            /*!< SCB 
 402:Generated_Source\PSoC5/core_cm3.h **** #define SCB_CPUID_VARIANT_Msk              (0xFUL << SCB_CPUID_VARIANT_Pos)               /*!< SCB 
 403:Generated_Source\PSoC5/core_cm3.h **** 
 404:Generated_Source\PSoC5/core_cm3.h **** #define SCB_CPUID_ARCHITECTURE_Pos         16U                                            /*!< SCB 
ARM GAS  C:\Users\manuelfu\AppData\Local\Temp\ccrlKxnK.s 			page 10


 405:Generated_Source\PSoC5/core_cm3.h **** #define SCB_CPUID_ARCHITECTURE_Msk         (0xFUL << SCB_CPUID_ARCHITECTURE_Pos)          /*!< SCB 
 406:Generated_Source\PSoC5/core_cm3.h **** 
 407:Generated_Source\PSoC5/core_cm3.h **** #define SCB_CPUID_PARTNO_Pos                4U                                            /*!< SCB 
 408:Generated_Source\PSoC5/core_cm3.h **** #define SCB_CPUID_PARTNO_Msk               (0xFFFUL << SCB_CPUID_PARTNO_Pos)              /*!< SCB 
 409:Generated_Source\PSoC5/core_cm3.h **** 
 410:Generated_Source\PSoC5/core_cm3.h **** #define SCB_CPUID_REVISION_Pos              0U                                            /*!< SCB 
 411:Generated_Source\PSoC5/core_cm3.h **** #define SCB_CPUID_REVISION_Msk             (0xFUL /*<< SCB_CPUID_REVISION_Pos*/)          /*!< SCB 
 412:Generated_Source\PSoC5/core_cm3.h **** 
 413:Generated_Source\PSoC5/core_cm3.h **** /* SCB Interrupt Control State Register Definitions */
 414:Generated_Source\PSoC5/core_cm3.h **** #define SCB_ICSR_NMIPENDSET_Pos            31U                                            /*!< SCB 
 415:Generated_Source\PSoC5/core_cm3.h **** #define SCB_ICSR_NMIPENDSET_Msk            (1UL << SCB_ICSR_NMIPENDSET_Pos)               /*!< SCB 
 416:Generated_Source\PSoC5/core_cm3.h **** 
 417:Generated_Source\PSoC5/core_cm3.h **** #define SCB_ICSR_PENDSVSET_Pos             28U                                            /*!< SCB 
 418:Generated_Source\PSoC5/core_cm3.h **** #define SCB_ICSR_PENDSVSET_Msk             (1UL << SCB_ICSR_PENDSVSET_Pos)                /*!< SCB 
 419:Generated_Source\PSoC5/core_cm3.h **** 
 420:Generated_Source\PSoC5/core_cm3.h **** #define SCB_ICSR_PENDSVCLR_Pos             27U                                            /*!< SCB 
 421:Generated_Source\PSoC5/core_cm3.h **** #define SCB_ICSR_PENDSVCLR_Msk             (1UL << SCB_ICSR_PENDSVCLR_Pos)                /*!< SCB 
 422:Generated_Source\PSoC5/core_cm3.h **** 
 423:Generated_Source\PSoC5/core_cm3.h **** #define SCB_ICSR_PENDSTSET_Pos             26U                                            /*!< SCB 
 424:Generated_Source\PSoC5/core_cm3.h **** #define SCB_ICSR_PENDSTSET_Msk             (1UL << SCB_ICSR_PENDSTSET_Pos)                /*!< SCB 
 425:Generated_Source\PSoC5/core_cm3.h **** 
 426:Generated_Source\PSoC5/core_cm3.h **** #define SCB_ICSR_PENDSTCLR_Pos             25U                                            /*!< SCB 
 427:Generated_Source\PSoC5/core_cm3.h **** #define SCB_ICSR_PENDSTCLR_Msk             (1UL << SCB_ICSR_PENDSTCLR_Pos)                /*!< SCB 
 428:Generated_Source\PSoC5/core_cm3.h **** 
 429:Generated_Source\PSoC5/core_cm3.h **** #define SCB_ICSR_ISRPREEMPT_Pos            23U                                            /*!< SCB 
 430:Generated_Source\PSoC5/core_cm3.h **** #define SCB_ICSR_ISRPREEMPT_Msk            (1UL << SCB_ICSR_ISRPREEMPT_Pos)               /*!< SCB 
 431:Generated_Source\PSoC5/core_cm3.h **** 
 432:Generated_Source\PSoC5/core_cm3.h **** #define SCB_ICSR_ISRPENDING_Pos            22U                                            /*!< SCB 
 433:Generated_Source\PSoC5/core_cm3.h **** #define SCB_ICSR_ISRPENDING_Msk            (1UL << SCB_ICSR_ISRPENDING_Pos)               /*!< SCB 
 434:Generated_Source\PSoC5/core_cm3.h **** 
 435:Generated_Source\PSoC5/core_cm3.h **** #define SCB_ICSR_VECTPENDING_Pos           12U                                            /*!< SCB 
 436:Generated_Source\PSoC5/core_cm3.h **** #define SCB_ICSR_VECTPENDING_Msk           (0x1FFUL << SCB_ICSR_VECTPENDING_Pos)          /*!< SCB 
 437:Generated_Source\PSoC5/core_cm3.h **** 
 438:Generated_Source\PSoC5/core_cm3.h **** #define SCB_ICSR_RETTOBASE_Pos             11U                                            /*!< SCB 
 439:Generated_Source\PSoC5/core_cm3.h **** #define SCB_ICSR_RETTOBASE_Msk             (1UL << SCB_ICSR_RETTOBASE_Pos)                /*!< SCB 
 440:Generated_Source\PSoC5/core_cm3.h **** 
 441:Generated_Source\PSoC5/core_cm3.h **** #define SCB_ICSR_VECTACTIVE_Pos             0U                                            /*!< SCB 
 442:Generated_Source\PSoC5/core_cm3.h **** #define SCB_ICSR_VECTACTIVE_Msk            (0x1FFUL /*<< SCB_ICSR_VECTACTIVE_Pos*/)       /*!< SCB 
 443:Generated_Source\PSoC5/core_cm3.h **** 
 444:Generated_Source\PSoC5/core_cm3.h **** /* SCB Vector Table Offset Register Definitions */
 445:Generated_Source\PSoC5/core_cm3.h **** #if defined (__CM3_REV) && (__CM3_REV < 0x0201U)                   /* core r2p1 */
 446:Generated_Source\PSoC5/core_cm3.h **** #define SCB_VTOR_TBLBASE_Pos               29U                                            /*!< SCB 
 447:Generated_Source\PSoC5/core_cm3.h **** #define SCB_VTOR_TBLBASE_Msk               (1UL << SCB_VTOR_TBLBASE_Pos)                  /*!< SCB 
 448:Generated_Source\PSoC5/core_cm3.h **** 
 449:Generated_Source\PSoC5/core_cm3.h **** #define SCB_VTOR_TBLOFF_Pos                 7U                                            /*!< SCB 
 450:Generated_Source\PSoC5/core_cm3.h **** #define SCB_VTOR_TBLOFF_Msk                (0x3FFFFFUL << SCB_VTOR_TBLOFF_Pos)            /*!< SCB 
 451:Generated_Source\PSoC5/core_cm3.h **** #else
 452:Generated_Source\PSoC5/core_cm3.h **** #define SCB_VTOR_TBLOFF_Pos                 7U                                            /*!< SCB 
 453:Generated_Source\PSoC5/core_cm3.h **** #define SCB_VTOR_TBLOFF_Msk                (0x1FFFFFFUL << SCB_VTOR_TBLOFF_Pos)           /*!< SCB 
 454:Generated_Source\PSoC5/core_cm3.h **** #endif
 455:Generated_Source\PSoC5/core_cm3.h **** 
 456:Generated_Source\PSoC5/core_cm3.h **** /* SCB Application Interrupt and Reset Control Register Definitions */
 457:Generated_Source\PSoC5/core_cm3.h **** #define SCB_AIRCR_VECTKEY_Pos              16U                                            /*!< SCB 
 458:Generated_Source\PSoC5/core_cm3.h **** #define SCB_AIRCR_VECTKEY_Msk              (0xFFFFUL << SCB_AIRCR_VECTKEY_Pos)            /*!< SCB 
 459:Generated_Source\PSoC5/core_cm3.h **** 
 460:Generated_Source\PSoC5/core_cm3.h **** #define SCB_AIRCR_VECTKEYSTAT_Pos          16U                                            /*!< SCB 
 461:Generated_Source\PSoC5/core_cm3.h **** #define SCB_AIRCR_VECTKEYSTAT_Msk          (0xFFFFUL << SCB_AIRCR_VECTKEYSTAT_Pos)        /*!< SCB 
ARM GAS  C:\Users\manuelfu\AppData\Local\Temp\ccrlKxnK.s 			page 11


 462:Generated_Source\PSoC5/core_cm3.h **** 
 463:Generated_Source\PSoC5/core_cm3.h **** #define SCB_AIRCR_ENDIANESS_Pos            15U                                            /*!< SCB 
 464:Generated_Source\PSoC5/core_cm3.h **** #define SCB_AIRCR_ENDIANESS_Msk            (1UL << SCB_AIRCR_ENDIANESS_Pos)               /*!< SCB 
 465:Generated_Source\PSoC5/core_cm3.h **** 
 466:Generated_Source\PSoC5/core_cm3.h **** #define SCB_AIRCR_PRIGROUP_Pos              8U                                            /*!< SCB 
 467:Generated_Source\PSoC5/core_cm3.h **** #define SCB_AIRCR_PRIGROUP_Msk             (7UL << SCB_AIRCR_PRIGROUP_Pos)                /*!< SCB 
 468:Generated_Source\PSoC5/core_cm3.h **** 
 469:Generated_Source\PSoC5/core_cm3.h **** #define SCB_AIRCR_SYSRESETREQ_Pos           2U                                            /*!< SCB 
 470:Generated_Source\PSoC5/core_cm3.h **** #define SCB_AIRCR_SYSRESETREQ_Msk          (1UL << SCB_AIRCR_SYSRESETREQ_Pos)             /*!< SCB 
 471:Generated_Source\PSoC5/core_cm3.h **** 
 472:Generated_Source\PSoC5/core_cm3.h **** #define SCB_AIRCR_VECTCLRACTIVE_Pos         1U                                            /*!< SCB 
 473:Generated_Source\PSoC5/core_cm3.h **** #define SCB_AIRCR_VECTCLRACTIVE_Msk        (1UL << SCB_AIRCR_VECTCLRACTIVE_Pos)           /*!< SCB 
 474:Generated_Source\PSoC5/core_cm3.h **** 
 475:Generated_Source\PSoC5/core_cm3.h **** #define SCB_AIRCR_VECTRESET_Pos             0U                                            /*!< SCB 
 476:Generated_Source\PSoC5/core_cm3.h **** #define SCB_AIRCR_VECTRESET_Msk            (1UL /*<< SCB_AIRCR_VECTRESET_Pos*/)           /*!< SCB 
 477:Generated_Source\PSoC5/core_cm3.h **** 
 478:Generated_Source\PSoC5/core_cm3.h **** /* SCB System Control Register Definitions */
 479:Generated_Source\PSoC5/core_cm3.h **** #define SCB_SCR_SEVONPEND_Pos               4U                                            /*!< SCB 
 480:Generated_Source\PSoC5/core_cm3.h **** #define SCB_SCR_SEVONPEND_Msk              (1UL << SCB_SCR_SEVONPEND_Pos)                 /*!< SCB 
 481:Generated_Source\PSoC5/core_cm3.h **** 
 482:Generated_Source\PSoC5/core_cm3.h **** #define SCB_SCR_SLEEPDEEP_Pos               2U                                            /*!< SCB 
 483:Generated_Source\PSoC5/core_cm3.h **** #define SCB_SCR_SLEEPDEEP_Msk              (1UL << SCB_SCR_SLEEPDEEP_Pos)                 /*!< SCB 
 484:Generated_Source\PSoC5/core_cm3.h **** 
 485:Generated_Source\PSoC5/core_cm3.h **** #define SCB_SCR_SLEEPONEXIT_Pos             1U                                            /*!< SCB 
 486:Generated_Source\PSoC5/core_cm3.h **** #define SCB_SCR_SLEEPONEXIT_Msk            (1UL << SCB_SCR_SLEEPONEXIT_Pos)               /*!< SCB 
 487:Generated_Source\PSoC5/core_cm3.h **** 
 488:Generated_Source\PSoC5/core_cm3.h **** /* SCB Configuration Control Register Definitions */
 489:Generated_Source\PSoC5/core_cm3.h **** #define SCB_CCR_STKALIGN_Pos                9U                                            /*!< SCB 
 490:Generated_Source\PSoC5/core_cm3.h **** #define SCB_CCR_STKALIGN_Msk               (1UL << SCB_CCR_STKALIGN_Pos)                  /*!< SCB 
 491:Generated_Source\PSoC5/core_cm3.h **** 
 492:Generated_Source\PSoC5/core_cm3.h **** #define SCB_CCR_BFHFNMIGN_Pos               8U                                            /*!< SCB 
 493:Generated_Source\PSoC5/core_cm3.h **** #define SCB_CCR_BFHFNMIGN_Msk              (1UL << SCB_CCR_BFHFNMIGN_Pos)                 /*!< SCB 
 494:Generated_Source\PSoC5/core_cm3.h **** 
 495:Generated_Source\PSoC5/core_cm3.h **** #define SCB_CCR_DIV_0_TRP_Pos               4U                                            /*!< SCB 
 496:Generated_Source\PSoC5/core_cm3.h **** #define SCB_CCR_DIV_0_TRP_Msk              (1UL << SCB_CCR_DIV_0_TRP_Pos)                 /*!< SCB 
 497:Generated_Source\PSoC5/core_cm3.h **** 
 498:Generated_Source\PSoC5/core_cm3.h **** #define SCB_CCR_UNALIGN_TRP_Pos             3U                                            /*!< SCB 
 499:Generated_Source\PSoC5/core_cm3.h **** #define SCB_CCR_UNALIGN_TRP_Msk            (1UL << SCB_CCR_UNALIGN_TRP_Pos)               /*!< SCB 
 500:Generated_Source\PSoC5/core_cm3.h **** 
 501:Generated_Source\PSoC5/core_cm3.h **** #define SCB_CCR_USERSETMPEND_Pos            1U                                            /*!< SCB 
 502:Generated_Source\PSoC5/core_cm3.h **** #define SCB_CCR_USERSETMPEND_Msk           (1UL << SCB_CCR_USERSETMPEND_Pos)              /*!< SCB 
 503:Generated_Source\PSoC5/core_cm3.h **** 
 504:Generated_Source\PSoC5/core_cm3.h **** #define SCB_CCR_NONBASETHRDENA_Pos          0U                                            /*!< SCB 
 505:Generated_Source\PSoC5/core_cm3.h **** #define SCB_CCR_NONBASETHRDENA_Msk         (1UL /*<< SCB_CCR_NONBASETHRDENA_Pos*/)        /*!< SCB 
 506:Generated_Source\PSoC5/core_cm3.h **** 
 507:Generated_Source\PSoC5/core_cm3.h **** /* SCB System Handler Control and State Register Definitions */
 508:Generated_Source\PSoC5/core_cm3.h **** #define SCB_SHCSR_USGFAULTENA_Pos          18U                                            /*!< SCB 
 509:Generated_Source\PSoC5/core_cm3.h **** #define SCB_SHCSR_USGFAULTENA_Msk          (1UL << SCB_SHCSR_USGFAULTENA_Pos)             /*!< SCB 
 510:Generated_Source\PSoC5/core_cm3.h **** 
 511:Generated_Source\PSoC5/core_cm3.h **** #define SCB_SHCSR_BUSFAULTENA_Pos          17U                                            /*!< SCB 
 512:Generated_Source\PSoC5/core_cm3.h **** #define SCB_SHCSR_BUSFAULTENA_Msk          (1UL << SCB_SHCSR_BUSFAULTENA_Pos)             /*!< SCB 
 513:Generated_Source\PSoC5/core_cm3.h **** 
 514:Generated_Source\PSoC5/core_cm3.h **** #define SCB_SHCSR_MEMFAULTENA_Pos          16U                                            /*!< SCB 
 515:Generated_Source\PSoC5/core_cm3.h **** #define SCB_SHCSR_MEMFAULTENA_Msk          (1UL << SCB_SHCSR_MEMFAULTENA_Pos)             /*!< SCB 
 516:Generated_Source\PSoC5/core_cm3.h **** 
 517:Generated_Source\PSoC5/core_cm3.h **** #define SCB_SHCSR_SVCALLPENDED_Pos         15U                                            /*!< SCB 
 518:Generated_Source\PSoC5/core_cm3.h **** #define SCB_SHCSR_SVCALLPENDED_Msk         (1UL << SCB_SHCSR_SVCALLPENDED_Pos)            /*!< SCB 
ARM GAS  C:\Users\manuelfu\AppData\Local\Temp\ccrlKxnK.s 			page 12


 519:Generated_Source\PSoC5/core_cm3.h **** 
 520:Generated_Source\PSoC5/core_cm3.h **** #define SCB_SHCSR_BUSFAULTPENDED_Pos       14U                                            /*!< SCB 
 521:Generated_Source\PSoC5/core_cm3.h **** #define SCB_SHCSR_BUSFAULTPENDED_Msk       (1UL << SCB_SHCSR_BUSFAULTPENDED_Pos)          /*!< SCB 
 522:Generated_Source\PSoC5/core_cm3.h **** 
 523:Generated_Source\PSoC5/core_cm3.h **** #define SCB_SHCSR_MEMFAULTPENDED_Pos       13U                                            /*!< SCB 
 524:Generated_Source\PSoC5/core_cm3.h **** #define SCB_SHCSR_MEMFAULTPENDED_Msk       (1UL << SCB_SHCSR_MEMFAULTPENDED_Pos)          /*!< SCB 
 525:Generated_Source\PSoC5/core_cm3.h **** 
 526:Generated_Source\PSoC5/core_cm3.h **** #define SCB_SHCSR_USGFAULTPENDED_Pos       12U                                            /*!< SCB 
 527:Generated_Source\PSoC5/core_cm3.h **** #define SCB_SHCSR_USGFAULTPENDED_Msk       (1UL << SCB_SHCSR_USGFAULTPENDED_Pos)          /*!< SCB 
 528:Generated_Source\PSoC5/core_cm3.h **** 
 529:Generated_Source\PSoC5/core_cm3.h **** #define SCB_SHCSR_SYSTICKACT_Pos           11U                                            /*!< SCB 
 530:Generated_Source\PSoC5/core_cm3.h **** #define SCB_SHCSR_SYSTICKACT_Msk           (1UL << SCB_SHCSR_SYSTICKACT_Pos)              /*!< SCB 
 531:Generated_Source\PSoC5/core_cm3.h **** 
 532:Generated_Source\PSoC5/core_cm3.h **** #define SCB_SHCSR_PENDSVACT_Pos            10U                                            /*!< SCB 
 533:Generated_Source\PSoC5/core_cm3.h **** #define SCB_SHCSR_PENDSVACT_Msk            (1UL << SCB_SHCSR_PENDSVACT_Pos)               /*!< SCB 
 534:Generated_Source\PSoC5/core_cm3.h **** 
 535:Generated_Source\PSoC5/core_cm3.h **** #define SCB_SHCSR_MONITORACT_Pos            8U                                            /*!< SCB 
 536:Generated_Source\PSoC5/core_cm3.h **** #define SCB_SHCSR_MONITORACT_Msk           (1UL << SCB_SHCSR_MONITORACT_Pos)              /*!< SCB 
 537:Generated_Source\PSoC5/core_cm3.h **** 
 538:Generated_Source\PSoC5/core_cm3.h **** #define SCB_SHCSR_SVCALLACT_Pos             7U                                            /*!< SCB 
 539:Generated_Source\PSoC5/core_cm3.h **** #define SCB_SHCSR_SVCALLACT_Msk            (1UL << SCB_SHCSR_SVCALLACT_Pos)               /*!< SCB 
 540:Generated_Source\PSoC5/core_cm3.h **** 
 541:Generated_Source\PSoC5/core_cm3.h **** #define SCB_SHCSR_USGFAULTACT_Pos           3U                                            /*!< SCB 
 542:Generated_Source\PSoC5/core_cm3.h **** #define SCB_SHCSR_USGFAULTACT_Msk          (1UL << SCB_SHCSR_USGFAULTACT_Pos)             /*!< SCB 
 543:Generated_Source\PSoC5/core_cm3.h **** 
 544:Generated_Source\PSoC5/core_cm3.h **** #define SCB_SHCSR_BUSFAULTACT_Pos           1U                                            /*!< SCB 
 545:Generated_Source\PSoC5/core_cm3.h **** #define SCB_SHCSR_BUSFAULTACT_Msk          (1UL << SCB_SHCSR_BUSFAULTACT_Pos)             /*!< SCB 
 546:Generated_Source\PSoC5/core_cm3.h **** 
 547:Generated_Source\PSoC5/core_cm3.h **** #define SCB_SHCSR_MEMFAULTACT_Pos           0U                                            /*!< SCB 
 548:Generated_Source\PSoC5/core_cm3.h **** #define SCB_SHCSR_MEMFAULTACT_Msk          (1UL /*<< SCB_SHCSR_MEMFAULTACT_Pos*/)         /*!< SCB 
 549:Generated_Source\PSoC5/core_cm3.h **** 
 550:Generated_Source\PSoC5/core_cm3.h **** /* SCB Configurable Fault Status Register Definitions */
 551:Generated_Source\PSoC5/core_cm3.h **** #define SCB_CFSR_USGFAULTSR_Pos            16U                                            /*!< SCB 
 552:Generated_Source\PSoC5/core_cm3.h **** #define SCB_CFSR_USGFAULTSR_Msk            (0xFFFFUL << SCB_CFSR_USGFAULTSR_Pos)          /*!< SCB 
 553:Generated_Source\PSoC5/core_cm3.h **** 
 554:Generated_Source\PSoC5/core_cm3.h **** #define SCB_CFSR_BUSFAULTSR_Pos             8U                                            /*!< SCB 
 555:Generated_Source\PSoC5/core_cm3.h **** #define SCB_CFSR_BUSFAULTSR_Msk            (0xFFUL << SCB_CFSR_BUSFAULTSR_Pos)            /*!< SCB 
 556:Generated_Source\PSoC5/core_cm3.h **** 
 557:Generated_Source\PSoC5/core_cm3.h **** #define SCB_CFSR_MEMFAULTSR_Pos             0U                                            /*!< SCB 
 558:Generated_Source\PSoC5/core_cm3.h **** #define SCB_CFSR_MEMFAULTSR_Msk            (0xFFUL /*<< SCB_CFSR_MEMFAULTSR_Pos*/)        /*!< SCB 
 559:Generated_Source\PSoC5/core_cm3.h **** 
 560:Generated_Source\PSoC5/core_cm3.h **** /* MemManage Fault Status Register (part of SCB Configurable Fault Status Register) */
 561:Generated_Source\PSoC5/core_cm3.h **** #define SCB_CFSR_MMARVALID_Pos             (SCB_SHCSR_MEMFAULTACT_Pos + 7U)               /*!< SCB 
 562:Generated_Source\PSoC5/core_cm3.h **** #define SCB_CFSR_MMARVALID_Msk             (1UL << SCB_CFSR_MMARVALID_Pos)                /*!< SCB 
 563:Generated_Source\PSoC5/core_cm3.h **** 
 564:Generated_Source\PSoC5/core_cm3.h **** #define SCB_CFSR_MSTKERR_Pos               (SCB_SHCSR_MEMFAULTACT_Pos + 4U)               /*!< SCB 
 565:Generated_Source\PSoC5/core_cm3.h **** #define SCB_CFSR_MSTKERR_Msk               (1UL << SCB_CFSR_MSTKERR_Pos)                  /*!< SCB 
 566:Generated_Source\PSoC5/core_cm3.h **** 
 567:Generated_Source\PSoC5/core_cm3.h **** #define SCB_CFSR_MUNSTKERR_Pos             (SCB_SHCSR_MEMFAULTACT_Pos + 3U)               /*!< SCB 
 568:Generated_Source\PSoC5/core_cm3.h **** #define SCB_CFSR_MUNSTKERR_Msk             (1UL << SCB_CFSR_MUNSTKERR_Pos)                /*!< SCB 
 569:Generated_Source\PSoC5/core_cm3.h **** 
 570:Generated_Source\PSoC5/core_cm3.h **** #define SCB_CFSR_DACCVIOL_Pos              (SCB_SHCSR_MEMFAULTACT_Pos + 1U)               /*!< SCB 
 571:Generated_Source\PSoC5/core_cm3.h **** #define SCB_CFSR_DACCVIOL_Msk              (1UL << SCB_CFSR_DACCVIOL_Pos)                 /*!< SCB 
 572:Generated_Source\PSoC5/core_cm3.h **** 
 573:Generated_Source\PSoC5/core_cm3.h **** #define SCB_CFSR_IACCVIOL_Pos              (SCB_SHCSR_MEMFAULTACT_Pos + 0U)               /*!< SCB 
 574:Generated_Source\PSoC5/core_cm3.h **** #define SCB_CFSR_IACCVIOL_Msk              (1UL /*<< SCB_CFSR_IACCVIOL_Pos*/)             /*!< SCB 
 575:Generated_Source\PSoC5/core_cm3.h **** 
ARM GAS  C:\Users\manuelfu\AppData\Local\Temp\ccrlKxnK.s 			page 13


 576:Generated_Source\PSoC5/core_cm3.h **** /* BusFault Status Register (part of SCB Configurable Fault Status Register) */
 577:Generated_Source\PSoC5/core_cm3.h **** #define SCB_CFSR_BFARVALID_Pos            (SCB_CFSR_BUSFAULTSR_Pos + 7U)                  /*!< SCB 
 578:Generated_Source\PSoC5/core_cm3.h **** #define SCB_CFSR_BFARVALID_Msk            (1UL << SCB_CFSR_BFARVALID_Pos)                 /*!< SCB 
 579:Generated_Source\PSoC5/core_cm3.h **** 
 580:Generated_Source\PSoC5/core_cm3.h **** #define SCB_CFSR_STKERR_Pos               (SCB_CFSR_BUSFAULTSR_Pos + 4U)                  /*!< SCB 
 581:Generated_Source\PSoC5/core_cm3.h **** #define SCB_CFSR_STKERR_Msk               (1UL << SCB_CFSR_STKERR_Pos)                    /*!< SCB 
 582:Generated_Source\PSoC5/core_cm3.h **** 
 583:Generated_Source\PSoC5/core_cm3.h **** #define SCB_CFSR_UNSTKERR_Pos             (SCB_CFSR_BUSFAULTSR_Pos + 3U)                  /*!< SCB 
 584:Generated_Source\PSoC5/core_cm3.h **** #define SCB_CFSR_UNSTKERR_Msk             (1UL << SCB_CFSR_UNSTKERR_Pos)                  /*!< SCB 
 585:Generated_Source\PSoC5/core_cm3.h **** 
 586:Generated_Source\PSoC5/core_cm3.h **** #define SCB_CFSR_IMPRECISERR_Pos          (SCB_CFSR_BUSFAULTSR_Pos + 2U)                  /*!< SCB 
 587:Generated_Source\PSoC5/core_cm3.h **** #define SCB_CFSR_IMPRECISERR_Msk          (1UL << SCB_CFSR_IMPRECISERR_Pos)               /*!< SCB 
 588:Generated_Source\PSoC5/core_cm3.h **** 
 589:Generated_Source\PSoC5/core_cm3.h **** #define SCB_CFSR_PRECISERR_Pos            (SCB_CFSR_BUSFAULTSR_Pos + 1U)                  /*!< SCB 
 590:Generated_Source\PSoC5/core_cm3.h **** #define SCB_CFSR_PRECISERR_Msk            (1UL << SCB_CFSR_PRECISERR_Pos)                 /*!< SCB 
 591:Generated_Source\PSoC5/core_cm3.h **** 
 592:Generated_Source\PSoC5/core_cm3.h **** #define SCB_CFSR_IBUSERR_Pos              (SCB_CFSR_BUSFAULTSR_Pos + 0U)                  /*!< SCB 
 593:Generated_Source\PSoC5/core_cm3.h **** #define SCB_CFSR_IBUSERR_Msk              (1UL << SCB_CFSR_IBUSERR_Pos)                   /*!< SCB 
 594:Generated_Source\PSoC5/core_cm3.h **** 
 595:Generated_Source\PSoC5/core_cm3.h **** /* UsageFault Status Register (part of SCB Configurable Fault Status Register) */
 596:Generated_Source\PSoC5/core_cm3.h **** #define SCB_CFSR_DIVBYZERO_Pos            (SCB_CFSR_USGFAULTSR_Pos + 9U)                  /*!< SCB 
 597:Generated_Source\PSoC5/core_cm3.h **** #define SCB_CFSR_DIVBYZERO_Msk            (1UL << SCB_CFSR_DIVBYZERO_Pos)                 /*!< SCB 
 598:Generated_Source\PSoC5/core_cm3.h **** 
 599:Generated_Source\PSoC5/core_cm3.h **** #define SCB_CFSR_UNALIGNED_Pos            (SCB_CFSR_USGFAULTSR_Pos + 8U)                  /*!< SCB 
 600:Generated_Source\PSoC5/core_cm3.h **** #define SCB_CFSR_UNALIGNED_Msk            (1UL << SCB_CFSR_UNALIGNED_Pos)                 /*!< SCB 
 601:Generated_Source\PSoC5/core_cm3.h **** 
 602:Generated_Source\PSoC5/core_cm3.h **** #define SCB_CFSR_NOCP_Pos                 (SCB_CFSR_USGFAULTSR_Pos + 3U)                  /*!< SCB 
 603:Generated_Source\PSoC5/core_cm3.h **** #define SCB_CFSR_NOCP_Msk                 (1UL << SCB_CFSR_NOCP_Pos)                      /*!< SCB 
 604:Generated_Source\PSoC5/core_cm3.h **** 
 605:Generated_Source\PSoC5/core_cm3.h **** #define SCB_CFSR_INVPC_Pos                (SCB_CFSR_USGFAULTSR_Pos + 2U)                  /*!< SCB 
 606:Generated_Source\PSoC5/core_cm3.h **** #define SCB_CFSR_INVPC_Msk                (1UL << SCB_CFSR_INVPC_Pos)                     /*!< SCB 
 607:Generated_Source\PSoC5/core_cm3.h **** 
 608:Generated_Source\PSoC5/core_cm3.h **** #define SCB_CFSR_INVSTATE_Pos             (SCB_CFSR_USGFAULTSR_Pos + 1U)                  /*!< SCB 
 609:Generated_Source\PSoC5/core_cm3.h **** #define SCB_CFSR_INVSTATE_Msk             (1UL << SCB_CFSR_INVSTATE_Pos)                  /*!< SCB 
 610:Generated_Source\PSoC5/core_cm3.h **** 
 611:Generated_Source\PSoC5/core_cm3.h **** #define SCB_CFSR_UNDEFINSTR_Pos           (SCB_CFSR_USGFAULTSR_Pos + 0U)                  /*!< SCB 
 612:Generated_Source\PSoC5/core_cm3.h **** #define SCB_CFSR_UNDEFINSTR_Msk           (1UL << SCB_CFSR_UNDEFINSTR_Pos)                /*!< SCB 
 613:Generated_Source\PSoC5/core_cm3.h **** 
 614:Generated_Source\PSoC5/core_cm3.h **** /* SCB Hard Fault Status Register Definitions */
 615:Generated_Source\PSoC5/core_cm3.h **** #define SCB_HFSR_DEBUGEVT_Pos              31U                                            /*!< SCB 
 616:Generated_Source\PSoC5/core_cm3.h **** #define SCB_HFSR_DEBUGEVT_Msk              (1UL << SCB_HFSR_DEBUGEVT_Pos)                 /*!< SCB 
 617:Generated_Source\PSoC5/core_cm3.h **** 
 618:Generated_Source\PSoC5/core_cm3.h **** #define SCB_HFSR_FORCED_Pos                30U                                            /*!< SCB 
 619:Generated_Source\PSoC5/core_cm3.h **** #define SCB_HFSR_FORCED_Msk                (1UL << SCB_HFSR_FORCED_Pos)                   /*!< SCB 
 620:Generated_Source\PSoC5/core_cm3.h **** 
 621:Generated_Source\PSoC5/core_cm3.h **** #define SCB_HFSR_VECTTBL_Pos                1U                                            /*!< SCB 
 622:Generated_Source\PSoC5/core_cm3.h **** #define SCB_HFSR_VECTTBL_Msk               (1UL << SCB_HFSR_VECTTBL_Pos)                  /*!< SCB 
 623:Generated_Source\PSoC5/core_cm3.h **** 
 624:Generated_Source\PSoC5/core_cm3.h **** /* SCB Debug Fault Status Register Definitions */
 625:Generated_Source\PSoC5/core_cm3.h **** #define SCB_DFSR_EXTERNAL_Pos               4U                                            /*!< SCB 
 626:Generated_Source\PSoC5/core_cm3.h **** #define SCB_DFSR_EXTERNAL_Msk              (1UL << SCB_DFSR_EXTERNAL_Pos)                 /*!< SCB 
 627:Generated_Source\PSoC5/core_cm3.h **** 
 628:Generated_Source\PSoC5/core_cm3.h **** #define SCB_DFSR_VCATCH_Pos                 3U                                            /*!< SCB 
 629:Generated_Source\PSoC5/core_cm3.h **** #define SCB_DFSR_VCATCH_Msk                (1UL << SCB_DFSR_VCATCH_Pos)                   /*!< SCB 
 630:Generated_Source\PSoC5/core_cm3.h **** 
 631:Generated_Source\PSoC5/core_cm3.h **** #define SCB_DFSR_DWTTRAP_Pos                2U                                            /*!< SCB 
 632:Generated_Source\PSoC5/core_cm3.h **** #define SCB_DFSR_DWTTRAP_Msk               (1UL << SCB_DFSR_DWTTRAP_Pos)                  /*!< SCB 
ARM GAS  C:\Users\manuelfu\AppData\Local\Temp\ccrlKxnK.s 			page 14


 633:Generated_Source\PSoC5/core_cm3.h **** 
 634:Generated_Source\PSoC5/core_cm3.h **** #define SCB_DFSR_BKPT_Pos                   1U                                            /*!< SCB 
 635:Generated_Source\PSoC5/core_cm3.h **** #define SCB_DFSR_BKPT_Msk                  (1UL << SCB_DFSR_BKPT_Pos)                     /*!< SCB 
 636:Generated_Source\PSoC5/core_cm3.h **** 
 637:Generated_Source\PSoC5/core_cm3.h **** #define SCB_DFSR_HALTED_Pos                 0U                                            /*!< SCB 
 638:Generated_Source\PSoC5/core_cm3.h **** #define SCB_DFSR_HALTED_Msk                (1UL /*<< SCB_DFSR_HALTED_Pos*/)               /*!< SCB 
 639:Generated_Source\PSoC5/core_cm3.h **** 
 640:Generated_Source\PSoC5/core_cm3.h **** /*@} end of group CMSIS_SCB */
 641:Generated_Source\PSoC5/core_cm3.h **** 
 642:Generated_Source\PSoC5/core_cm3.h **** 
 643:Generated_Source\PSoC5/core_cm3.h **** /**
 644:Generated_Source\PSoC5/core_cm3.h ****   \ingroup  CMSIS_core_register
 645:Generated_Source\PSoC5/core_cm3.h ****   \defgroup CMSIS_SCnSCB System Controls not in SCB (SCnSCB)
 646:Generated_Source\PSoC5/core_cm3.h ****   \brief    Type definitions for the System Control and ID Register not in the SCB
 647:Generated_Source\PSoC5/core_cm3.h ****   @{
 648:Generated_Source\PSoC5/core_cm3.h ****  */
 649:Generated_Source\PSoC5/core_cm3.h **** 
 650:Generated_Source\PSoC5/core_cm3.h **** /**
 651:Generated_Source\PSoC5/core_cm3.h ****   \brief  Structure type to access the System Control and ID Register not in the SCB.
 652:Generated_Source\PSoC5/core_cm3.h ****  */
 653:Generated_Source\PSoC5/core_cm3.h **** typedef struct
 654:Generated_Source\PSoC5/core_cm3.h **** {
 655:Generated_Source\PSoC5/core_cm3.h ****         uint32_t RESERVED0[1U];
 656:Generated_Source\PSoC5/core_cm3.h ****   __IM  uint32_t ICTR;                   /*!< Offset: 0x004 (R/ )  Interrupt Controller Type Regist
 657:Generated_Source\PSoC5/core_cm3.h **** #if defined (__CM3_REV) && (__CM3_REV >= 0x200U)
 658:Generated_Source\PSoC5/core_cm3.h ****   __IOM uint32_t ACTLR;                  /*!< Offset: 0x008 (R/W)  Auxiliary Control Register */
 659:Generated_Source\PSoC5/core_cm3.h **** #else
 660:Generated_Source\PSoC5/core_cm3.h ****         uint32_t RESERVED1[1U];
 661:Generated_Source\PSoC5/core_cm3.h **** #endif
 662:Generated_Source\PSoC5/core_cm3.h **** } SCnSCB_Type;
 663:Generated_Source\PSoC5/core_cm3.h **** 
 664:Generated_Source\PSoC5/core_cm3.h **** /* Interrupt Controller Type Register Definitions */
 665:Generated_Source\PSoC5/core_cm3.h **** #define SCnSCB_ICTR_INTLINESNUM_Pos         0U                                         /*!< ICTR: I
 666:Generated_Source\PSoC5/core_cm3.h **** #define SCnSCB_ICTR_INTLINESNUM_Msk        (0xFUL /*<< SCnSCB_ICTR_INTLINESNUM_Pos*/)  /*!< ICTR: I
 667:Generated_Source\PSoC5/core_cm3.h **** 
 668:Generated_Source\PSoC5/core_cm3.h **** /* Auxiliary Control Register Definitions */
 669:Generated_Source\PSoC5/core_cm3.h **** 
 670:Generated_Source\PSoC5/core_cm3.h **** #define SCnSCB_ACTLR_DISFOLD_Pos            2U                                         /*!< ACTLR: 
 671:Generated_Source\PSoC5/core_cm3.h **** #define SCnSCB_ACTLR_DISFOLD_Msk           (1UL << SCnSCB_ACTLR_DISFOLD_Pos)           /*!< ACTLR: 
 672:Generated_Source\PSoC5/core_cm3.h **** 
 673:Generated_Source\PSoC5/core_cm3.h **** #define SCnSCB_ACTLR_DISDEFWBUF_Pos         1U                                         /*!< ACTLR: 
 674:Generated_Source\PSoC5/core_cm3.h **** #define SCnSCB_ACTLR_DISDEFWBUF_Msk        (1UL << SCnSCB_ACTLR_DISDEFWBUF_Pos)        /*!< ACTLR: 
 675:Generated_Source\PSoC5/core_cm3.h **** 
 676:Generated_Source\PSoC5/core_cm3.h **** #define SCnSCB_ACTLR_DISMCYCINT_Pos         0U                                         /*!< ACTLR: 
 677:Generated_Source\PSoC5/core_cm3.h **** #define SCnSCB_ACTLR_DISMCYCINT_Msk        (1UL /*<< SCnSCB_ACTLR_DISMCYCINT_Pos*/)    /*!< ACTLR: 
 678:Generated_Source\PSoC5/core_cm3.h **** 
 679:Generated_Source\PSoC5/core_cm3.h **** /*@} end of group CMSIS_SCnotSCB */
 680:Generated_Source\PSoC5/core_cm3.h **** 
 681:Generated_Source\PSoC5/core_cm3.h **** 
 682:Generated_Source\PSoC5/core_cm3.h **** /**
 683:Generated_Source\PSoC5/core_cm3.h ****   \ingroup  CMSIS_core_register
 684:Generated_Source\PSoC5/core_cm3.h ****   \defgroup CMSIS_SysTick     System Tick Timer (SysTick)
 685:Generated_Source\PSoC5/core_cm3.h ****   \brief    Type definitions for the System Timer Registers.
 686:Generated_Source\PSoC5/core_cm3.h ****   @{
 687:Generated_Source\PSoC5/core_cm3.h ****  */
 688:Generated_Source\PSoC5/core_cm3.h **** 
 689:Generated_Source\PSoC5/core_cm3.h **** /**
ARM GAS  C:\Users\manuelfu\AppData\Local\Temp\ccrlKxnK.s 			page 15


 690:Generated_Source\PSoC5/core_cm3.h ****   \brief  Structure type to access the System Timer (SysTick).
 691:Generated_Source\PSoC5/core_cm3.h ****  */
 692:Generated_Source\PSoC5/core_cm3.h **** typedef struct
 693:Generated_Source\PSoC5/core_cm3.h **** {
 694:Generated_Source\PSoC5/core_cm3.h ****   __IOM uint32_t CTRL;                   /*!< Offset: 0x000 (R/W)  SysTick Control and Status Regis
 695:Generated_Source\PSoC5/core_cm3.h ****   __IOM uint32_t LOAD;                   /*!< Offset: 0x004 (R/W)  SysTick Reload Value Register */
 696:Generated_Source\PSoC5/core_cm3.h ****   __IOM uint32_t VAL;                    /*!< Offset: 0x008 (R/W)  SysTick Current Value Register *
 697:Generated_Source\PSoC5/core_cm3.h ****   __IM  uint32_t CALIB;                  /*!< Offset: 0x00C (R/ )  SysTick Calibration Register */
 698:Generated_Source\PSoC5/core_cm3.h **** } SysTick_Type;
 699:Generated_Source\PSoC5/core_cm3.h **** 
 700:Generated_Source\PSoC5/core_cm3.h **** /* SysTick Control / Status Register Definitions */
 701:Generated_Source\PSoC5/core_cm3.h **** #define SysTick_CTRL_COUNTFLAG_Pos         16U                                            /*!< SysT
 702:Generated_Source\PSoC5/core_cm3.h **** #define SysTick_CTRL_COUNTFLAG_Msk         (1UL << SysTick_CTRL_COUNTFLAG_Pos)            /*!< SysT
 703:Generated_Source\PSoC5/core_cm3.h **** 
 704:Generated_Source\PSoC5/core_cm3.h **** #define SysTick_CTRL_CLKSOURCE_Pos          2U                                            /*!< SysT
 705:Generated_Source\PSoC5/core_cm3.h **** #define SysTick_CTRL_CLKSOURCE_Msk         (1UL << SysTick_CTRL_CLKSOURCE_Pos)            /*!< SysT
 706:Generated_Source\PSoC5/core_cm3.h **** 
 707:Generated_Source\PSoC5/core_cm3.h **** #define SysTick_CTRL_TICKINT_Pos            1U                                            /*!< SysT
 708:Generated_Source\PSoC5/core_cm3.h **** #define SysTick_CTRL_TICKINT_Msk           (1UL << SysTick_CTRL_TICKINT_Pos)              /*!< SysT
 709:Generated_Source\PSoC5/core_cm3.h **** 
 710:Generated_Source\PSoC5/core_cm3.h **** #define SysTick_CTRL_ENABLE_Pos             0U                                            /*!< SysT
 711:Generated_Source\PSoC5/core_cm3.h **** #define SysTick_CTRL_ENABLE_Msk            (1UL /*<< SysTick_CTRL_ENABLE_Pos*/)           /*!< SysT
 712:Generated_Source\PSoC5/core_cm3.h **** 
 713:Generated_Source\PSoC5/core_cm3.h **** /* SysTick Reload Register Definitions */
 714:Generated_Source\PSoC5/core_cm3.h **** #define SysTick_LOAD_RELOAD_Pos             0U                                            /*!< SysT
 715:Generated_Source\PSoC5/core_cm3.h **** #define SysTick_LOAD_RELOAD_Msk            (0xFFFFFFUL /*<< SysTick_LOAD_RELOAD_Pos*/)    /*!< SysT
 716:Generated_Source\PSoC5/core_cm3.h **** 
 717:Generated_Source\PSoC5/core_cm3.h **** /* SysTick Current Register Definitions */
 718:Generated_Source\PSoC5/core_cm3.h **** #define SysTick_VAL_CURRENT_Pos             0U                                            /*!< SysT
 719:Generated_Source\PSoC5/core_cm3.h **** #define SysTick_VAL_CURRENT_Msk            (0xFFFFFFUL /*<< SysTick_VAL_CURRENT_Pos*/)    /*!< SysT
 720:Generated_Source\PSoC5/core_cm3.h **** 
 721:Generated_Source\PSoC5/core_cm3.h **** /* SysTick Calibration Register Definitions */
 722:Generated_Source\PSoC5/core_cm3.h **** #define SysTick_CALIB_NOREF_Pos            31U                                            /*!< SysT
 723:Generated_Source\PSoC5/core_cm3.h **** #define SysTick_CALIB_NOREF_Msk            (1UL << SysTick_CALIB_NOREF_Pos)               /*!< SysT
 724:Generated_Source\PSoC5/core_cm3.h **** 
 725:Generated_Source\PSoC5/core_cm3.h **** #define SysTick_CALIB_SKEW_Pos             30U                                            /*!< SysT
 726:Generated_Source\PSoC5/core_cm3.h **** #define SysTick_CALIB_SKEW_Msk             (1UL << SysTick_CALIB_SKEW_Pos)                /*!< SysT
 727:Generated_Source\PSoC5/core_cm3.h **** 
 728:Generated_Source\PSoC5/core_cm3.h **** #define SysTick_CALIB_TENMS_Pos             0U                                            /*!< SysT
 729:Generated_Source\PSoC5/core_cm3.h **** #define SysTick_CALIB_TENMS_Msk            (0xFFFFFFUL /*<< SysTick_CALIB_TENMS_Pos*/)    /*!< SysT
 730:Generated_Source\PSoC5/core_cm3.h **** 
 731:Generated_Source\PSoC5/core_cm3.h **** /*@} end of group CMSIS_SysTick */
 732:Generated_Source\PSoC5/core_cm3.h **** 
 733:Generated_Source\PSoC5/core_cm3.h **** 
 734:Generated_Source\PSoC5/core_cm3.h **** /**
 735:Generated_Source\PSoC5/core_cm3.h ****   \ingroup  CMSIS_core_register
 736:Generated_Source\PSoC5/core_cm3.h ****   \defgroup CMSIS_ITM     Instrumentation Trace Macrocell (ITM)
 737:Generated_Source\PSoC5/core_cm3.h ****   \brief    Type definitions for the Instrumentation Trace Macrocell (ITM)
 738:Generated_Source\PSoC5/core_cm3.h ****   @{
 739:Generated_Source\PSoC5/core_cm3.h ****  */
 740:Generated_Source\PSoC5/core_cm3.h **** 
 741:Generated_Source\PSoC5/core_cm3.h **** /**
 742:Generated_Source\PSoC5/core_cm3.h ****   \brief  Structure type to access the Instrumentation Trace Macrocell Register (ITM).
 743:Generated_Source\PSoC5/core_cm3.h ****  */
 744:Generated_Source\PSoC5/core_cm3.h **** typedef struct
 745:Generated_Source\PSoC5/core_cm3.h **** {
 746:Generated_Source\PSoC5/core_cm3.h ****   __OM  union
ARM GAS  C:\Users\manuelfu\AppData\Local\Temp\ccrlKxnK.s 			page 16


 747:Generated_Source\PSoC5/core_cm3.h ****   {
 748:Generated_Source\PSoC5/core_cm3.h ****     __OM  uint8_t    u8;                 /*!< Offset: 0x000 ( /W)  ITM Stimulus Port 8-bit */
 749:Generated_Source\PSoC5/core_cm3.h ****     __OM  uint16_t   u16;                /*!< Offset: 0x000 ( /W)  ITM Stimulus Port 16-bit */
 750:Generated_Source\PSoC5/core_cm3.h ****     __OM  uint32_t   u32;                /*!< Offset: 0x000 ( /W)  ITM Stimulus Port 32-bit */
 751:Generated_Source\PSoC5/core_cm3.h ****   }  PORT [32U];                         /*!< Offset: 0x000 ( /W)  ITM Stimulus Port Registers */
 752:Generated_Source\PSoC5/core_cm3.h ****         uint32_t RESERVED0[864U];
 753:Generated_Source\PSoC5/core_cm3.h ****   __IOM uint32_t TER;                    /*!< Offset: 0xE00 (R/W)  ITM Trace Enable Register */
 754:Generated_Source\PSoC5/core_cm3.h ****         uint32_t RESERVED1[15U];
 755:Generated_Source\PSoC5/core_cm3.h ****   __IOM uint32_t TPR;                    /*!< Offset: 0xE40 (R/W)  ITM Trace Privilege Register */
 756:Generated_Source\PSoC5/core_cm3.h ****         uint32_t RESERVED2[15U];
 757:Generated_Source\PSoC5/core_cm3.h ****   __IOM uint32_t TCR;                    /*!< Offset: 0xE80 (R/W)  ITM Trace Control Register */
 758:Generated_Source\PSoC5/core_cm3.h ****         uint32_t RESERVED3[29U];
 759:Generated_Source\PSoC5/core_cm3.h ****   __OM  uint32_t IWR;                    /*!< Offset: 0xEF8 ( /W)  ITM Integration Write Register *
 760:Generated_Source\PSoC5/core_cm3.h ****   __IM  uint32_t IRR;                    /*!< Offset: 0xEFC (R/ )  ITM Integration Read Register */
 761:Generated_Source\PSoC5/core_cm3.h ****   __IOM uint32_t IMCR;                   /*!< Offset: 0xF00 (R/W)  ITM Integration Mode Control Reg
 762:Generated_Source\PSoC5/core_cm3.h ****         uint32_t RESERVED4[43U];
 763:Generated_Source\PSoC5/core_cm3.h ****   __OM  uint32_t LAR;                    /*!< Offset: 0xFB0 ( /W)  ITM Lock Access Register */
 764:Generated_Source\PSoC5/core_cm3.h ****   __IM  uint32_t LSR;                    /*!< Offset: 0xFB4 (R/ )  ITM Lock Status Register */
 765:Generated_Source\PSoC5/core_cm3.h ****         uint32_t RESERVED5[6U];
 766:Generated_Source\PSoC5/core_cm3.h ****   __IM  uint32_t PID4;                   /*!< Offset: 0xFD0 (R/ )  ITM Peripheral Identification Re
 767:Generated_Source\PSoC5/core_cm3.h ****   __IM  uint32_t PID5;                   /*!< Offset: 0xFD4 (R/ )  ITM Peripheral Identification Re
 768:Generated_Source\PSoC5/core_cm3.h ****   __IM  uint32_t PID6;                   /*!< Offset: 0xFD8 (R/ )  ITM Peripheral Identification Re
 769:Generated_Source\PSoC5/core_cm3.h ****   __IM  uint32_t PID7;                   /*!< Offset: 0xFDC (R/ )  ITM Peripheral Identification Re
 770:Generated_Source\PSoC5/core_cm3.h ****   __IM  uint32_t PID0;                   /*!< Offset: 0xFE0 (R/ )  ITM Peripheral Identification Re
 771:Generated_Source\PSoC5/core_cm3.h ****   __IM  uint32_t PID1;                   /*!< Offset: 0xFE4 (R/ )  ITM Peripheral Identification Re
 772:Generated_Source\PSoC5/core_cm3.h ****   __IM  uint32_t PID2;                   /*!< Offset: 0xFE8 (R/ )  ITM Peripheral Identification Re
 773:Generated_Source\PSoC5/core_cm3.h ****   __IM  uint32_t PID3;                   /*!< Offset: 0xFEC (R/ )  ITM Peripheral Identification Re
 774:Generated_Source\PSoC5/core_cm3.h ****   __IM  uint32_t CID0;                   /*!< Offset: 0xFF0 (R/ )  ITM Component  Identification Re
 775:Generated_Source\PSoC5/core_cm3.h ****   __IM  uint32_t CID1;                   /*!< Offset: 0xFF4 (R/ )  ITM Component  Identification Re
 776:Generated_Source\PSoC5/core_cm3.h ****   __IM  uint32_t CID2;                   /*!< Offset: 0xFF8 (R/ )  ITM Component  Identification Re
 777:Generated_Source\PSoC5/core_cm3.h ****   __IM  uint32_t CID3;                   /*!< Offset: 0xFFC (R/ )  ITM Component  Identification Re
 778:Generated_Source\PSoC5/core_cm3.h **** } ITM_Type;
 779:Generated_Source\PSoC5/core_cm3.h **** 
 780:Generated_Source\PSoC5/core_cm3.h **** /* ITM Trace Privilege Register Definitions */
 781:Generated_Source\PSoC5/core_cm3.h **** #define ITM_TPR_PRIVMASK_Pos                0U                                            /*!< ITM 
 782:Generated_Source\PSoC5/core_cm3.h **** #define ITM_TPR_PRIVMASK_Msk               (0xFUL /*<< ITM_TPR_PRIVMASK_Pos*/)            /*!< ITM 
 783:Generated_Source\PSoC5/core_cm3.h **** 
 784:Generated_Source\PSoC5/core_cm3.h **** /* ITM Trace Control Register Definitions */
 785:Generated_Source\PSoC5/core_cm3.h **** #define ITM_TCR_BUSY_Pos                   23U                                            /*!< ITM 
 786:Generated_Source\PSoC5/core_cm3.h **** #define ITM_TCR_BUSY_Msk                   (1UL << ITM_TCR_BUSY_Pos)                      /*!< ITM 
 787:Generated_Source\PSoC5/core_cm3.h **** 
 788:Generated_Source\PSoC5/core_cm3.h **** #define ITM_TCR_TraceBusID_Pos             16U                                            /*!< ITM 
 789:Generated_Source\PSoC5/core_cm3.h **** #define ITM_TCR_TraceBusID_Msk             (0x7FUL << ITM_TCR_TraceBusID_Pos)             /*!< ITM 
 790:Generated_Source\PSoC5/core_cm3.h **** 
 791:Generated_Source\PSoC5/core_cm3.h **** #define ITM_TCR_GTSFREQ_Pos                10U                                            /*!< ITM 
 792:Generated_Source\PSoC5/core_cm3.h **** #define ITM_TCR_GTSFREQ_Msk                (3UL << ITM_TCR_GTSFREQ_Pos)                   /*!< ITM 
 793:Generated_Source\PSoC5/core_cm3.h **** 
 794:Generated_Source\PSoC5/core_cm3.h **** #define ITM_TCR_TSPrescale_Pos              8U                                            /*!< ITM 
 795:Generated_Source\PSoC5/core_cm3.h **** #define ITM_TCR_TSPrescale_Msk             (3UL << ITM_TCR_TSPrescale_Pos)                /*!< ITM 
 796:Generated_Source\PSoC5/core_cm3.h **** 
 797:Generated_Source\PSoC5/core_cm3.h **** #define ITM_TCR_SWOENA_Pos                  4U                                            /*!< ITM 
 798:Generated_Source\PSoC5/core_cm3.h **** #define ITM_TCR_SWOENA_Msk                 (1UL << ITM_TCR_SWOENA_Pos)                    /*!< ITM 
 799:Generated_Source\PSoC5/core_cm3.h **** 
 800:Generated_Source\PSoC5/core_cm3.h **** #define ITM_TCR_DWTENA_Pos                  3U                                            /*!< ITM 
 801:Generated_Source\PSoC5/core_cm3.h **** #define ITM_TCR_DWTENA_Msk                 (1UL << ITM_TCR_DWTENA_Pos)                    /*!< ITM 
 802:Generated_Source\PSoC5/core_cm3.h **** 
 803:Generated_Source\PSoC5/core_cm3.h **** #define ITM_TCR_SYNCENA_Pos                 2U                                            /*!< ITM 
ARM GAS  C:\Users\manuelfu\AppData\Local\Temp\ccrlKxnK.s 			page 17


 804:Generated_Source\PSoC5/core_cm3.h **** #define ITM_TCR_SYNCENA_Msk                (1UL << ITM_TCR_SYNCENA_Pos)                   /*!< ITM 
 805:Generated_Source\PSoC5/core_cm3.h **** 
 806:Generated_Source\PSoC5/core_cm3.h **** #define ITM_TCR_TSENA_Pos                   1U                                            /*!< ITM 
 807:Generated_Source\PSoC5/core_cm3.h **** #define ITM_TCR_TSENA_Msk                  (1UL << ITM_TCR_TSENA_Pos)                     /*!< ITM 
 808:Generated_Source\PSoC5/core_cm3.h **** 
 809:Generated_Source\PSoC5/core_cm3.h **** #define ITM_TCR_ITMENA_Pos                  0U                                            /*!< ITM 
 810:Generated_Source\PSoC5/core_cm3.h **** #define ITM_TCR_ITMENA_Msk                 (1UL /*<< ITM_TCR_ITMENA_Pos*/)                /*!< ITM 
 811:Generated_Source\PSoC5/core_cm3.h **** 
 812:Generated_Source\PSoC5/core_cm3.h **** /* ITM Integration Write Register Definitions */
 813:Generated_Source\PSoC5/core_cm3.h **** #define ITM_IWR_ATVALIDM_Pos                0U                                            /*!< ITM 
 814:Generated_Source\PSoC5/core_cm3.h **** #define ITM_IWR_ATVALIDM_Msk               (1UL /*<< ITM_IWR_ATVALIDM_Pos*/)              /*!< ITM 
 815:Generated_Source\PSoC5/core_cm3.h **** 
 816:Generated_Source\PSoC5/core_cm3.h **** /* ITM Integration Read Register Definitions */
 817:Generated_Source\PSoC5/core_cm3.h **** #define ITM_IRR_ATREADYM_Pos                0U                                            /*!< ITM 
 818:Generated_Source\PSoC5/core_cm3.h **** #define ITM_IRR_ATREADYM_Msk               (1UL /*<< ITM_IRR_ATREADYM_Pos*/)              /*!< ITM 
 819:Generated_Source\PSoC5/core_cm3.h **** 
 820:Generated_Source\PSoC5/core_cm3.h **** /* ITM Integration Mode Control Register Definitions */
 821:Generated_Source\PSoC5/core_cm3.h **** #define ITM_IMCR_INTEGRATION_Pos            0U                                            /*!< ITM 
 822:Generated_Source\PSoC5/core_cm3.h **** #define ITM_IMCR_INTEGRATION_Msk           (1UL /*<< ITM_IMCR_INTEGRATION_Pos*/)          /*!< ITM 
 823:Generated_Source\PSoC5/core_cm3.h **** 
 824:Generated_Source\PSoC5/core_cm3.h **** /* ITM Lock Status Register Definitions */
 825:Generated_Source\PSoC5/core_cm3.h **** #define ITM_LSR_ByteAcc_Pos                 2U                                            /*!< ITM 
 826:Generated_Source\PSoC5/core_cm3.h **** #define ITM_LSR_ByteAcc_Msk                (1UL << ITM_LSR_ByteAcc_Pos)                   /*!< ITM 
 827:Generated_Source\PSoC5/core_cm3.h **** 
 828:Generated_Source\PSoC5/core_cm3.h **** #define ITM_LSR_Access_Pos                  1U                                            /*!< ITM 
 829:Generated_Source\PSoC5/core_cm3.h **** #define ITM_LSR_Access_Msk                 (1UL << ITM_LSR_Access_Pos)                    /*!< ITM 
 830:Generated_Source\PSoC5/core_cm3.h **** 
 831:Generated_Source\PSoC5/core_cm3.h **** #define ITM_LSR_Present_Pos                 0U                                            /*!< ITM 
 832:Generated_Source\PSoC5/core_cm3.h **** #define ITM_LSR_Present_Msk                (1UL /*<< ITM_LSR_Present_Pos*/)               /*!< ITM 
 833:Generated_Source\PSoC5/core_cm3.h **** 
 834:Generated_Source\PSoC5/core_cm3.h **** /*@}*/ /* end of group CMSIS_ITM */
 835:Generated_Source\PSoC5/core_cm3.h **** 
 836:Generated_Source\PSoC5/core_cm3.h **** 
 837:Generated_Source\PSoC5/core_cm3.h **** /**
 838:Generated_Source\PSoC5/core_cm3.h ****   \ingroup  CMSIS_core_register
 839:Generated_Source\PSoC5/core_cm3.h ****   \defgroup CMSIS_DWT     Data Watchpoint and Trace (DWT)
 840:Generated_Source\PSoC5/core_cm3.h ****   \brief    Type definitions for the Data Watchpoint and Trace (DWT)
 841:Generated_Source\PSoC5/core_cm3.h ****   @{
 842:Generated_Source\PSoC5/core_cm3.h ****  */
 843:Generated_Source\PSoC5/core_cm3.h **** 
 844:Generated_Source\PSoC5/core_cm3.h **** /**
 845:Generated_Source\PSoC5/core_cm3.h ****   \brief  Structure type to access the Data Watchpoint and Trace Register (DWT).
 846:Generated_Source\PSoC5/core_cm3.h ****  */
 847:Generated_Source\PSoC5/core_cm3.h **** typedef struct
 848:Generated_Source\PSoC5/core_cm3.h **** {
 849:Generated_Source\PSoC5/core_cm3.h ****   __IOM uint32_t CTRL;                   /*!< Offset: 0x000 (R/W)  Control Register */
 850:Generated_Source\PSoC5/core_cm3.h ****   __IOM uint32_t CYCCNT;                 /*!< Offset: 0x004 (R/W)  Cycle Count Register */
 851:Generated_Source\PSoC5/core_cm3.h ****   __IOM uint32_t CPICNT;                 /*!< Offset: 0x008 (R/W)  CPI Count Register */
 852:Generated_Source\PSoC5/core_cm3.h ****   __IOM uint32_t EXCCNT;                 /*!< Offset: 0x00C (R/W)  Exception Overhead Count Registe
 853:Generated_Source\PSoC5/core_cm3.h ****   __IOM uint32_t SLEEPCNT;               /*!< Offset: 0x010 (R/W)  Sleep Count Register */
 854:Generated_Source\PSoC5/core_cm3.h ****   __IOM uint32_t LSUCNT;                 /*!< Offset: 0x014 (R/W)  LSU Count Register */
 855:Generated_Source\PSoC5/core_cm3.h ****   __IOM uint32_t FOLDCNT;                /*!< Offset: 0x018 (R/W)  Folded-instruction Count Registe
 856:Generated_Source\PSoC5/core_cm3.h ****   __IM  uint32_t PCSR;                   /*!< Offset: 0x01C (R/ )  Program Counter Sample Register 
 857:Generated_Source\PSoC5/core_cm3.h ****   __IOM uint32_t COMP0;                  /*!< Offset: 0x020 (R/W)  Comparator Register 0 */
 858:Generated_Source\PSoC5/core_cm3.h ****   __IOM uint32_t MASK0;                  /*!< Offset: 0x024 (R/W)  Mask Register 0 */
 859:Generated_Source\PSoC5/core_cm3.h ****   __IOM uint32_t FUNCTION0;              /*!< Offset: 0x028 (R/W)  Function Register 0 */
 860:Generated_Source\PSoC5/core_cm3.h ****         uint32_t RESERVED0[1U];
ARM GAS  C:\Users\manuelfu\AppData\Local\Temp\ccrlKxnK.s 			page 18


 861:Generated_Source\PSoC5/core_cm3.h ****   __IOM uint32_t COMP1;                  /*!< Offset: 0x030 (R/W)  Comparator Register 1 */
 862:Generated_Source\PSoC5/core_cm3.h ****   __IOM uint32_t MASK1;                  /*!< Offset: 0x034 (R/W)  Mask Register 1 */
 863:Generated_Source\PSoC5/core_cm3.h ****   __IOM uint32_t FUNCTION1;              /*!< Offset: 0x038 (R/W)  Function Register 1 */
 864:Generated_Source\PSoC5/core_cm3.h ****         uint32_t RESERVED1[1U];
 865:Generated_Source\PSoC5/core_cm3.h ****   __IOM uint32_t COMP2;                  /*!< Offset: 0x040 (R/W)  Comparator Register 2 */
 866:Generated_Source\PSoC5/core_cm3.h ****   __IOM uint32_t MASK2;                  /*!< Offset: 0x044 (R/W)  Mask Register 2 */
 867:Generated_Source\PSoC5/core_cm3.h ****   __IOM uint32_t FUNCTION2;              /*!< Offset: 0x048 (R/W)  Function Register 2 */
 868:Generated_Source\PSoC5/core_cm3.h ****         uint32_t RESERVED2[1U];
 869:Generated_Source\PSoC5/core_cm3.h ****   __IOM uint32_t COMP3;                  /*!< Offset: 0x050 (R/W)  Comparator Register 3 */
 870:Generated_Source\PSoC5/core_cm3.h ****   __IOM uint32_t MASK3;                  /*!< Offset: 0x054 (R/W)  Mask Register 3 */
 871:Generated_Source\PSoC5/core_cm3.h ****   __IOM uint32_t FUNCTION3;              /*!< Offset: 0x058 (R/W)  Function Register 3 */
 872:Generated_Source\PSoC5/core_cm3.h **** } DWT_Type;
 873:Generated_Source\PSoC5/core_cm3.h **** 
 874:Generated_Source\PSoC5/core_cm3.h **** /* DWT Control Register Definitions */
 875:Generated_Source\PSoC5/core_cm3.h **** #define DWT_CTRL_NUMCOMP_Pos               28U                                         /*!< DWT CTR
 876:Generated_Source\PSoC5/core_cm3.h **** #define DWT_CTRL_NUMCOMP_Msk               (0xFUL << DWT_CTRL_NUMCOMP_Pos)             /*!< DWT CTR
 877:Generated_Source\PSoC5/core_cm3.h **** 
 878:Generated_Source\PSoC5/core_cm3.h **** #define DWT_CTRL_NOTRCPKT_Pos              27U                                         /*!< DWT CTR
 879:Generated_Source\PSoC5/core_cm3.h **** #define DWT_CTRL_NOTRCPKT_Msk              (0x1UL << DWT_CTRL_NOTRCPKT_Pos)            /*!< DWT CTR
 880:Generated_Source\PSoC5/core_cm3.h **** 
 881:Generated_Source\PSoC5/core_cm3.h **** #define DWT_CTRL_NOEXTTRIG_Pos             26U                                         /*!< DWT CTR
 882:Generated_Source\PSoC5/core_cm3.h **** #define DWT_CTRL_NOEXTTRIG_Msk             (0x1UL << DWT_CTRL_NOEXTTRIG_Pos)           /*!< DWT CTR
 883:Generated_Source\PSoC5/core_cm3.h **** 
 884:Generated_Source\PSoC5/core_cm3.h **** #define DWT_CTRL_NOCYCCNT_Pos              25U                                         /*!< DWT CTR
 885:Generated_Source\PSoC5/core_cm3.h **** #define DWT_CTRL_NOCYCCNT_Msk              (0x1UL << DWT_CTRL_NOCYCCNT_Pos)            /*!< DWT CTR
 886:Generated_Source\PSoC5/core_cm3.h **** 
 887:Generated_Source\PSoC5/core_cm3.h **** #define DWT_CTRL_NOPRFCNT_Pos              24U                                         /*!< DWT CTR
 888:Generated_Source\PSoC5/core_cm3.h **** #define DWT_CTRL_NOPRFCNT_Msk              (0x1UL << DWT_CTRL_NOPRFCNT_Pos)            /*!< DWT CTR
 889:Generated_Source\PSoC5/core_cm3.h **** 
 890:Generated_Source\PSoC5/core_cm3.h **** #define DWT_CTRL_CYCEVTENA_Pos             22U                                         /*!< DWT CTR
 891:Generated_Source\PSoC5/core_cm3.h **** #define DWT_CTRL_CYCEVTENA_Msk             (0x1UL << DWT_CTRL_CYCEVTENA_Pos)           /*!< DWT CTR
 892:Generated_Source\PSoC5/core_cm3.h **** 
 893:Generated_Source\PSoC5/core_cm3.h **** #define DWT_CTRL_FOLDEVTENA_Pos            21U                                         /*!< DWT CTR
 894:Generated_Source\PSoC5/core_cm3.h **** #define DWT_CTRL_FOLDEVTENA_Msk            (0x1UL << DWT_CTRL_FOLDEVTENA_Pos)          /*!< DWT CTR
 895:Generated_Source\PSoC5/core_cm3.h **** 
 896:Generated_Source\PSoC5/core_cm3.h **** #define DWT_CTRL_LSUEVTENA_Pos             20U                                         /*!< DWT CTR
 897:Generated_Source\PSoC5/core_cm3.h **** #define DWT_CTRL_LSUEVTENA_Msk             (0x1UL << DWT_CTRL_LSUEVTENA_Pos)           /*!< DWT CTR
 898:Generated_Source\PSoC5/core_cm3.h **** 
 899:Generated_Source\PSoC5/core_cm3.h **** #define DWT_CTRL_SLEEPEVTENA_Pos           19U                                         /*!< DWT CTR
 900:Generated_Source\PSoC5/core_cm3.h **** #define DWT_CTRL_SLEEPEVTENA_Msk           (0x1UL << DWT_CTRL_SLEEPEVTENA_Pos)         /*!< DWT CTR
 901:Generated_Source\PSoC5/core_cm3.h **** 
 902:Generated_Source\PSoC5/core_cm3.h **** #define DWT_CTRL_EXCEVTENA_Pos             18U                                         /*!< DWT CTR
 903:Generated_Source\PSoC5/core_cm3.h **** #define DWT_CTRL_EXCEVTENA_Msk             (0x1UL << DWT_CTRL_EXCEVTENA_Pos)           /*!< DWT CTR
 904:Generated_Source\PSoC5/core_cm3.h **** 
 905:Generated_Source\PSoC5/core_cm3.h **** #define DWT_CTRL_CPIEVTENA_Pos             17U                                         /*!< DWT CTR
 906:Generated_Source\PSoC5/core_cm3.h **** #define DWT_CTRL_CPIEVTENA_Msk             (0x1UL << DWT_CTRL_CPIEVTENA_Pos)           /*!< DWT CTR
 907:Generated_Source\PSoC5/core_cm3.h **** 
 908:Generated_Source\PSoC5/core_cm3.h **** #define DWT_CTRL_EXCTRCENA_Pos             16U                                         /*!< DWT CTR
 909:Generated_Source\PSoC5/core_cm3.h **** #define DWT_CTRL_EXCTRCENA_Msk             (0x1UL << DWT_CTRL_EXCTRCENA_Pos)           /*!< DWT CTR
 910:Generated_Source\PSoC5/core_cm3.h **** 
 911:Generated_Source\PSoC5/core_cm3.h **** #define DWT_CTRL_PCSAMPLENA_Pos            12U                                         /*!< DWT CTR
 912:Generated_Source\PSoC5/core_cm3.h **** #define DWT_CTRL_PCSAMPLENA_Msk            (0x1UL << DWT_CTRL_PCSAMPLENA_Pos)          /*!< DWT CTR
 913:Generated_Source\PSoC5/core_cm3.h **** 
 914:Generated_Source\PSoC5/core_cm3.h **** #define DWT_CTRL_SYNCTAP_Pos               10U                                         /*!< DWT CTR
 915:Generated_Source\PSoC5/core_cm3.h **** #define DWT_CTRL_SYNCTAP_Msk               (0x3UL << DWT_CTRL_SYNCTAP_Pos)             /*!< DWT CTR
 916:Generated_Source\PSoC5/core_cm3.h **** 
 917:Generated_Source\PSoC5/core_cm3.h **** #define DWT_CTRL_CYCTAP_Pos                 9U                                         /*!< DWT CTR
ARM GAS  C:\Users\manuelfu\AppData\Local\Temp\ccrlKxnK.s 			page 19


 918:Generated_Source\PSoC5/core_cm3.h **** #define DWT_CTRL_CYCTAP_Msk                (0x1UL << DWT_CTRL_CYCTAP_Pos)              /*!< DWT CTR
 919:Generated_Source\PSoC5/core_cm3.h **** 
 920:Generated_Source\PSoC5/core_cm3.h **** #define DWT_CTRL_POSTINIT_Pos               5U                                         /*!< DWT CTR
 921:Generated_Source\PSoC5/core_cm3.h **** #define DWT_CTRL_POSTINIT_Msk              (0xFUL << DWT_CTRL_POSTINIT_Pos)            /*!< DWT CTR
 922:Generated_Source\PSoC5/core_cm3.h **** 
 923:Generated_Source\PSoC5/core_cm3.h **** #define DWT_CTRL_POSTPRESET_Pos             1U                                         /*!< DWT CTR
 924:Generated_Source\PSoC5/core_cm3.h **** #define DWT_CTRL_POSTPRESET_Msk            (0xFUL << DWT_CTRL_POSTPRESET_Pos)          /*!< DWT CTR
 925:Generated_Source\PSoC5/core_cm3.h **** 
 926:Generated_Source\PSoC5/core_cm3.h **** #define DWT_CTRL_CYCCNTENA_Pos              0U                                         /*!< DWT CTR
 927:Generated_Source\PSoC5/core_cm3.h **** #define DWT_CTRL_CYCCNTENA_Msk             (0x1UL /*<< DWT_CTRL_CYCCNTENA_Pos*/)       /*!< DWT CTR
 928:Generated_Source\PSoC5/core_cm3.h **** 
 929:Generated_Source\PSoC5/core_cm3.h **** /* DWT CPI Count Register Definitions */
 930:Generated_Source\PSoC5/core_cm3.h **** #define DWT_CPICNT_CPICNT_Pos               0U                                         /*!< DWT CPI
 931:Generated_Source\PSoC5/core_cm3.h **** #define DWT_CPICNT_CPICNT_Msk              (0xFFUL /*<< DWT_CPICNT_CPICNT_Pos*/)       /*!< DWT CPI
 932:Generated_Source\PSoC5/core_cm3.h **** 
 933:Generated_Source\PSoC5/core_cm3.h **** /* DWT Exception Overhead Count Register Definitions */
 934:Generated_Source\PSoC5/core_cm3.h **** #define DWT_EXCCNT_EXCCNT_Pos               0U                                         /*!< DWT EXC
 935:Generated_Source\PSoC5/core_cm3.h **** #define DWT_EXCCNT_EXCCNT_Msk              (0xFFUL /*<< DWT_EXCCNT_EXCCNT_Pos*/)       /*!< DWT EXC
 936:Generated_Source\PSoC5/core_cm3.h **** 
 937:Generated_Source\PSoC5/core_cm3.h **** /* DWT Sleep Count Register Definitions */
 938:Generated_Source\PSoC5/core_cm3.h **** #define DWT_SLEEPCNT_SLEEPCNT_Pos           0U                                         /*!< DWT SLE
 939:Generated_Source\PSoC5/core_cm3.h **** #define DWT_SLEEPCNT_SLEEPCNT_Msk          (0xFFUL /*<< DWT_SLEEPCNT_SLEEPCNT_Pos*/)   /*!< DWT SLE
 940:Generated_Source\PSoC5/core_cm3.h **** 
 941:Generated_Source\PSoC5/core_cm3.h **** /* DWT LSU Count Register Definitions */
 942:Generated_Source\PSoC5/core_cm3.h **** #define DWT_LSUCNT_LSUCNT_Pos               0U                                         /*!< DWT LSU
 943:Generated_Source\PSoC5/core_cm3.h **** #define DWT_LSUCNT_LSUCNT_Msk              (0xFFUL /*<< DWT_LSUCNT_LSUCNT_Pos*/)       /*!< DWT LSU
 944:Generated_Source\PSoC5/core_cm3.h **** 
 945:Generated_Source\PSoC5/core_cm3.h **** /* DWT Folded-instruction Count Register Definitions */
 946:Generated_Source\PSoC5/core_cm3.h **** #define DWT_FOLDCNT_FOLDCNT_Pos             0U                                         /*!< DWT FOL
 947:Generated_Source\PSoC5/core_cm3.h **** #define DWT_FOLDCNT_FOLDCNT_Msk            (0xFFUL /*<< DWT_FOLDCNT_FOLDCNT_Pos*/)     /*!< DWT FOL
 948:Generated_Source\PSoC5/core_cm3.h **** 
 949:Generated_Source\PSoC5/core_cm3.h **** /* DWT Comparator Mask Register Definitions */
 950:Generated_Source\PSoC5/core_cm3.h **** #define DWT_MASK_MASK_Pos                   0U                                         /*!< DWT MAS
 951:Generated_Source\PSoC5/core_cm3.h **** #define DWT_MASK_MASK_Msk                  (0x1FUL /*<< DWT_MASK_MASK_Pos*/)           /*!< DWT MAS
 952:Generated_Source\PSoC5/core_cm3.h **** 
 953:Generated_Source\PSoC5/core_cm3.h **** /* DWT Comparator Function Register Definitions */
 954:Generated_Source\PSoC5/core_cm3.h **** #define DWT_FUNCTION_MATCHED_Pos           24U                                         /*!< DWT FUN
 955:Generated_Source\PSoC5/core_cm3.h **** #define DWT_FUNCTION_MATCHED_Msk           (0x1UL << DWT_FUNCTION_MATCHED_Pos)         /*!< DWT FUN
 956:Generated_Source\PSoC5/core_cm3.h **** 
 957:Generated_Source\PSoC5/core_cm3.h **** #define DWT_FUNCTION_DATAVADDR1_Pos        16U                                         /*!< DWT FUN
 958:Generated_Source\PSoC5/core_cm3.h **** #define DWT_FUNCTION_DATAVADDR1_Msk        (0xFUL << DWT_FUNCTION_DATAVADDR1_Pos)      /*!< DWT FUN
 959:Generated_Source\PSoC5/core_cm3.h **** 
 960:Generated_Source\PSoC5/core_cm3.h **** #define DWT_FUNCTION_DATAVADDR0_Pos        12U                                         /*!< DWT FUN
 961:Generated_Source\PSoC5/core_cm3.h **** #define DWT_FUNCTION_DATAVADDR0_Msk        (0xFUL << DWT_FUNCTION_DATAVADDR0_Pos)      /*!< DWT FUN
 962:Generated_Source\PSoC5/core_cm3.h **** 
 963:Generated_Source\PSoC5/core_cm3.h **** #define DWT_FUNCTION_DATAVSIZE_Pos         10U                                         /*!< DWT FUN
 964:Generated_Source\PSoC5/core_cm3.h **** #define DWT_FUNCTION_DATAVSIZE_Msk         (0x3UL << DWT_FUNCTION_DATAVSIZE_Pos)       /*!< DWT FUN
 965:Generated_Source\PSoC5/core_cm3.h **** 
 966:Generated_Source\PSoC5/core_cm3.h **** #define DWT_FUNCTION_LNK1ENA_Pos            9U                                         /*!< DWT FUN
 967:Generated_Source\PSoC5/core_cm3.h **** #define DWT_FUNCTION_LNK1ENA_Msk           (0x1UL << DWT_FUNCTION_LNK1ENA_Pos)         /*!< DWT FUN
 968:Generated_Source\PSoC5/core_cm3.h **** 
 969:Generated_Source\PSoC5/core_cm3.h **** #define DWT_FUNCTION_DATAVMATCH_Pos         8U                                         /*!< DWT FUN
 970:Generated_Source\PSoC5/core_cm3.h **** #define DWT_FUNCTION_DATAVMATCH_Msk        (0x1UL << DWT_FUNCTION_DATAVMATCH_Pos)      /*!< DWT FUN
 971:Generated_Source\PSoC5/core_cm3.h **** 
 972:Generated_Source\PSoC5/core_cm3.h **** #define DWT_FUNCTION_CYCMATCH_Pos           7U                                         /*!< DWT FUN
 973:Generated_Source\PSoC5/core_cm3.h **** #define DWT_FUNCTION_CYCMATCH_Msk          (0x1UL << DWT_FUNCTION_CYCMATCH_Pos)        /*!< DWT FUN
 974:Generated_Source\PSoC5/core_cm3.h **** 
ARM GAS  C:\Users\manuelfu\AppData\Local\Temp\ccrlKxnK.s 			page 20


 975:Generated_Source\PSoC5/core_cm3.h **** #define DWT_FUNCTION_EMITRANGE_Pos          5U                                         /*!< DWT FUN
 976:Generated_Source\PSoC5/core_cm3.h **** #define DWT_FUNCTION_EMITRANGE_Msk         (0x1UL << DWT_FUNCTION_EMITRANGE_Pos)       /*!< DWT FUN
 977:Generated_Source\PSoC5/core_cm3.h **** 
 978:Generated_Source\PSoC5/core_cm3.h **** #define DWT_FUNCTION_FUNCTION_Pos           0U                                         /*!< DWT FUN
 979:Generated_Source\PSoC5/core_cm3.h **** #define DWT_FUNCTION_FUNCTION_Msk          (0xFUL /*<< DWT_FUNCTION_FUNCTION_Pos*/)    /*!< DWT FUN
 980:Generated_Source\PSoC5/core_cm3.h **** 
 981:Generated_Source\PSoC5/core_cm3.h **** /*@}*/ /* end of group CMSIS_DWT */
 982:Generated_Source\PSoC5/core_cm3.h **** 
 983:Generated_Source\PSoC5/core_cm3.h **** 
 984:Generated_Source\PSoC5/core_cm3.h **** /**
 985:Generated_Source\PSoC5/core_cm3.h ****   \ingroup  CMSIS_core_register
 986:Generated_Source\PSoC5/core_cm3.h ****   \defgroup CMSIS_TPI     Trace Port Interface (TPI)
 987:Generated_Source\PSoC5/core_cm3.h ****   \brief    Type definitions for the Trace Port Interface (TPI)
 988:Generated_Source\PSoC5/core_cm3.h ****   @{
 989:Generated_Source\PSoC5/core_cm3.h ****  */
 990:Generated_Source\PSoC5/core_cm3.h **** 
 991:Generated_Source\PSoC5/core_cm3.h **** /**
 992:Generated_Source\PSoC5/core_cm3.h ****   \brief  Structure type to access the Trace Port Interface Register (TPI).
 993:Generated_Source\PSoC5/core_cm3.h ****  */
 994:Generated_Source\PSoC5/core_cm3.h **** typedef struct
 995:Generated_Source\PSoC5/core_cm3.h **** {
 996:Generated_Source\PSoC5/core_cm3.h ****   __IOM uint32_t SSPSR;                  /*!< Offset: 0x000 (R/ )  Supported Parallel Port Size Reg
 997:Generated_Source\PSoC5/core_cm3.h ****   __IOM uint32_t CSPSR;                  /*!< Offset: 0x004 (R/W)  Current Parallel Port Size Regis
 998:Generated_Source\PSoC5/core_cm3.h ****         uint32_t RESERVED0[2U];
 999:Generated_Source\PSoC5/core_cm3.h ****   __IOM uint32_t ACPR;                   /*!< Offset: 0x010 (R/W)  Asynchronous Clock Prescaler Reg
1000:Generated_Source\PSoC5/core_cm3.h ****         uint32_t RESERVED1[55U];
1001:Generated_Source\PSoC5/core_cm3.h ****   __IOM uint32_t SPPR;                   /*!< Offset: 0x0F0 (R/W)  Selected Pin Protocol Register *
1002:Generated_Source\PSoC5/core_cm3.h ****         uint32_t RESERVED2[131U];
1003:Generated_Source\PSoC5/core_cm3.h ****   __IM  uint32_t FFSR;                   /*!< Offset: 0x300 (R/ )  Formatter and Flush Status Regis
1004:Generated_Source\PSoC5/core_cm3.h ****   __IOM uint32_t FFCR;                   /*!< Offset: 0x304 (R/W)  Formatter and Flush Control Regi
1005:Generated_Source\PSoC5/core_cm3.h ****   __IM  uint32_t FSCR;                   /*!< Offset: 0x308 (R/ )  Formatter Synchronization Counte
1006:Generated_Source\PSoC5/core_cm3.h ****         uint32_t RESERVED3[759U];
1007:Generated_Source\PSoC5/core_cm3.h ****   __IM  uint32_t TRIGGER;                /*!< Offset: 0xEE8 (R/ )  TRIGGER */
1008:Generated_Source\PSoC5/core_cm3.h ****   __IM  uint32_t FIFO0;                  /*!< Offset: 0xEEC (R/ )  Integration ETM Data */
1009:Generated_Source\PSoC5/core_cm3.h ****   __IM  uint32_t ITATBCTR2;              /*!< Offset: 0xEF0 (R/ )  ITATBCTR2 */
1010:Generated_Source\PSoC5/core_cm3.h ****         uint32_t RESERVED4[1U];
1011:Generated_Source\PSoC5/core_cm3.h ****   __IM  uint32_t ITATBCTR0;              /*!< Offset: 0xEF8 (R/ )  ITATBCTR0 */
1012:Generated_Source\PSoC5/core_cm3.h ****   __IM  uint32_t FIFO1;                  /*!< Offset: 0xEFC (R/ )  Integration ITM Data */
1013:Generated_Source\PSoC5/core_cm3.h ****   __IOM uint32_t ITCTRL;                 /*!< Offset: 0xF00 (R/W)  Integration Mode Control */
1014:Generated_Source\PSoC5/core_cm3.h ****         uint32_t RESERVED5[39U];
1015:Generated_Source\PSoC5/core_cm3.h ****   __IOM uint32_t CLAIMSET;               /*!< Offset: 0xFA0 (R/W)  Claim tag set */
1016:Generated_Source\PSoC5/core_cm3.h ****   __IOM uint32_t CLAIMCLR;               /*!< Offset: 0xFA4 (R/W)  Claim tag clear */
1017:Generated_Source\PSoC5/core_cm3.h ****         uint32_t RESERVED7[8U];
1018:Generated_Source\PSoC5/core_cm3.h ****   __IM  uint32_t DEVID;                  /*!< Offset: 0xFC8 (R/ )  TPIU_DEVID */
1019:Generated_Source\PSoC5/core_cm3.h ****   __IM  uint32_t DEVTYPE;                /*!< Offset: 0xFCC (R/ )  TPIU_DEVTYPE */
1020:Generated_Source\PSoC5/core_cm3.h **** } TPI_Type;
1021:Generated_Source\PSoC5/core_cm3.h **** 
1022:Generated_Source\PSoC5/core_cm3.h **** /* TPI Asynchronous Clock Prescaler Register Definitions */
1023:Generated_Source\PSoC5/core_cm3.h **** #define TPI_ACPR_PRESCALER_Pos              0U                                         /*!< TPI ACP
1024:Generated_Source\PSoC5/core_cm3.h **** #define TPI_ACPR_PRESCALER_Msk             (0x1FFFUL /*<< TPI_ACPR_PRESCALER_Pos*/)    /*!< TPI ACP
1025:Generated_Source\PSoC5/core_cm3.h **** 
1026:Generated_Source\PSoC5/core_cm3.h **** /* TPI Selected Pin Protocol Register Definitions */
1027:Generated_Source\PSoC5/core_cm3.h **** #define TPI_SPPR_TXMODE_Pos                 0U                                         /*!< TPI SPP
1028:Generated_Source\PSoC5/core_cm3.h **** #define TPI_SPPR_TXMODE_Msk                (0x3UL /*<< TPI_SPPR_TXMODE_Pos*/)          /*!< TPI SPP
1029:Generated_Source\PSoC5/core_cm3.h **** 
1030:Generated_Source\PSoC5/core_cm3.h **** /* TPI Formatter and Flush Status Register Definitions */
1031:Generated_Source\PSoC5/core_cm3.h **** #define TPI_FFSR_FtNonStop_Pos              3U                                         /*!< TPI FFS
ARM GAS  C:\Users\manuelfu\AppData\Local\Temp\ccrlKxnK.s 			page 21


1032:Generated_Source\PSoC5/core_cm3.h **** #define TPI_FFSR_FtNonStop_Msk             (0x1UL << TPI_FFSR_FtNonStop_Pos)           /*!< TPI FFS
1033:Generated_Source\PSoC5/core_cm3.h **** 
1034:Generated_Source\PSoC5/core_cm3.h **** #define TPI_FFSR_TCPresent_Pos              2U                                         /*!< TPI FFS
1035:Generated_Source\PSoC5/core_cm3.h **** #define TPI_FFSR_TCPresent_Msk             (0x1UL << TPI_FFSR_TCPresent_Pos)           /*!< TPI FFS
1036:Generated_Source\PSoC5/core_cm3.h **** 
1037:Generated_Source\PSoC5/core_cm3.h **** #define TPI_FFSR_FtStopped_Pos              1U                                         /*!< TPI FFS
1038:Generated_Source\PSoC5/core_cm3.h **** #define TPI_FFSR_FtStopped_Msk             (0x1UL << TPI_FFSR_FtStopped_Pos)           /*!< TPI FFS
1039:Generated_Source\PSoC5/core_cm3.h **** 
1040:Generated_Source\PSoC5/core_cm3.h **** #define TPI_FFSR_FlInProg_Pos               0U                                         /*!< TPI FFS
1041:Generated_Source\PSoC5/core_cm3.h **** #define TPI_FFSR_FlInProg_Msk              (0x1UL /*<< TPI_FFSR_FlInProg_Pos*/)        /*!< TPI FFS
1042:Generated_Source\PSoC5/core_cm3.h **** 
1043:Generated_Source\PSoC5/core_cm3.h **** /* TPI Formatter and Flush Control Register Definitions */
1044:Generated_Source\PSoC5/core_cm3.h **** #define TPI_FFCR_TrigIn_Pos                 8U                                         /*!< TPI FFC
1045:Generated_Source\PSoC5/core_cm3.h **** #define TPI_FFCR_TrigIn_Msk                (0x1UL << TPI_FFCR_TrigIn_Pos)              /*!< TPI FFC
1046:Generated_Source\PSoC5/core_cm3.h **** 
1047:Generated_Source\PSoC5/core_cm3.h **** #define TPI_FFCR_EnFCont_Pos                1U                                         /*!< TPI FFC
1048:Generated_Source\PSoC5/core_cm3.h **** #define TPI_FFCR_EnFCont_Msk               (0x1UL << TPI_FFCR_EnFCont_Pos)             /*!< TPI FFC
1049:Generated_Source\PSoC5/core_cm3.h **** 
1050:Generated_Source\PSoC5/core_cm3.h **** /* TPI TRIGGER Register Definitions */
1051:Generated_Source\PSoC5/core_cm3.h **** #define TPI_TRIGGER_TRIGGER_Pos             0U                                         /*!< TPI TRI
1052:Generated_Source\PSoC5/core_cm3.h **** #define TPI_TRIGGER_TRIGGER_Msk            (0x1UL /*<< TPI_TRIGGER_TRIGGER_Pos*/)      /*!< TPI TRI
1053:Generated_Source\PSoC5/core_cm3.h **** 
1054:Generated_Source\PSoC5/core_cm3.h **** /* TPI Integration ETM Data Register Definitions (FIFO0) */
1055:Generated_Source\PSoC5/core_cm3.h **** #define TPI_FIFO0_ITM_ATVALID_Pos          29U                                         /*!< TPI FIF
1056:Generated_Source\PSoC5/core_cm3.h **** #define TPI_FIFO0_ITM_ATVALID_Msk          (0x3UL << TPI_FIFO0_ITM_ATVALID_Pos)        /*!< TPI FIF
1057:Generated_Source\PSoC5/core_cm3.h **** 
1058:Generated_Source\PSoC5/core_cm3.h **** #define TPI_FIFO0_ITM_bytecount_Pos        27U                                         /*!< TPI FIF
1059:Generated_Source\PSoC5/core_cm3.h **** #define TPI_FIFO0_ITM_bytecount_Msk        (0x3UL << TPI_FIFO0_ITM_bytecount_Pos)      /*!< TPI FIF
1060:Generated_Source\PSoC5/core_cm3.h **** 
1061:Generated_Source\PSoC5/core_cm3.h **** #define TPI_FIFO0_ETM_ATVALID_Pos          26U                                         /*!< TPI FIF
1062:Generated_Source\PSoC5/core_cm3.h **** #define TPI_FIFO0_ETM_ATVALID_Msk          (0x3UL << TPI_FIFO0_ETM_ATVALID_Pos)        /*!< TPI FIF
1063:Generated_Source\PSoC5/core_cm3.h **** 
1064:Generated_Source\PSoC5/core_cm3.h **** #define TPI_FIFO0_ETM_bytecount_Pos        24U                                         /*!< TPI FIF
1065:Generated_Source\PSoC5/core_cm3.h **** #define TPI_FIFO0_ETM_bytecount_Msk        (0x3UL << TPI_FIFO0_ETM_bytecount_Pos)      /*!< TPI FIF
1066:Generated_Source\PSoC5/core_cm3.h **** 
1067:Generated_Source\PSoC5/core_cm3.h **** #define TPI_FIFO0_ETM2_Pos                 16U                                         /*!< TPI FIF
1068:Generated_Source\PSoC5/core_cm3.h **** #define TPI_FIFO0_ETM2_Msk                 (0xFFUL << TPI_FIFO0_ETM2_Pos)              /*!< TPI FIF
1069:Generated_Source\PSoC5/core_cm3.h **** 
1070:Generated_Source\PSoC5/core_cm3.h **** #define TPI_FIFO0_ETM1_Pos                  8U                                         /*!< TPI FIF
1071:Generated_Source\PSoC5/core_cm3.h **** #define TPI_FIFO0_ETM1_Msk                 (0xFFUL << TPI_FIFO0_ETM1_Pos)              /*!< TPI FIF
1072:Generated_Source\PSoC5/core_cm3.h **** 
1073:Generated_Source\PSoC5/core_cm3.h **** #define TPI_FIFO0_ETM0_Pos                  0U                                         /*!< TPI FIF
1074:Generated_Source\PSoC5/core_cm3.h **** #define TPI_FIFO0_ETM0_Msk                 (0xFFUL /*<< TPI_FIFO0_ETM0_Pos*/)          /*!< TPI FIF
1075:Generated_Source\PSoC5/core_cm3.h **** 
1076:Generated_Source\PSoC5/core_cm3.h **** /* TPI ITATBCTR2 Register Definitions */
1077:Generated_Source\PSoC5/core_cm3.h **** #define TPI_ITATBCTR2_ATREADY_Pos           0U                                         /*!< TPI ITA
1078:Generated_Source\PSoC5/core_cm3.h **** #define TPI_ITATBCTR2_ATREADY_Msk          (0x1UL /*<< TPI_ITATBCTR2_ATREADY_Pos*/)    /*!< TPI ITA
1079:Generated_Source\PSoC5/core_cm3.h **** 
1080:Generated_Source\PSoC5/core_cm3.h **** /* TPI Integration ITM Data Register Definitions (FIFO1) */
1081:Generated_Source\PSoC5/core_cm3.h **** #define TPI_FIFO1_ITM_ATVALID_Pos          29U                                         /*!< TPI FIF
1082:Generated_Source\PSoC5/core_cm3.h **** #define TPI_FIFO1_ITM_ATVALID_Msk          (0x3UL << TPI_FIFO1_ITM_ATVALID_Pos)        /*!< TPI FIF
1083:Generated_Source\PSoC5/core_cm3.h **** 
1084:Generated_Source\PSoC5/core_cm3.h **** #define TPI_FIFO1_ITM_bytecount_Pos        27U                                         /*!< TPI FIF
1085:Generated_Source\PSoC5/core_cm3.h **** #define TPI_FIFO1_ITM_bytecount_Msk        (0x3UL << TPI_FIFO1_ITM_bytecount_Pos)      /*!< TPI FIF
1086:Generated_Source\PSoC5/core_cm3.h **** 
1087:Generated_Source\PSoC5/core_cm3.h **** #define TPI_FIFO1_ETM_ATVALID_Pos          26U                                         /*!< TPI FIF
1088:Generated_Source\PSoC5/core_cm3.h **** #define TPI_FIFO1_ETM_ATVALID_Msk          (0x3UL << TPI_FIFO1_ETM_ATVALID_Pos)        /*!< TPI FIF
ARM GAS  C:\Users\manuelfu\AppData\Local\Temp\ccrlKxnK.s 			page 22


1089:Generated_Source\PSoC5/core_cm3.h **** 
1090:Generated_Source\PSoC5/core_cm3.h **** #define TPI_FIFO1_ETM_bytecount_Pos        24U                                         /*!< TPI FIF
1091:Generated_Source\PSoC5/core_cm3.h **** #define TPI_FIFO1_ETM_bytecount_Msk        (0x3UL << TPI_FIFO1_ETM_bytecount_Pos)      /*!< TPI FIF
1092:Generated_Source\PSoC5/core_cm3.h **** 
1093:Generated_Source\PSoC5/core_cm3.h **** #define TPI_FIFO1_ITM2_Pos                 16U                                         /*!< TPI FIF
1094:Generated_Source\PSoC5/core_cm3.h **** #define TPI_FIFO1_ITM2_Msk                 (0xFFUL << TPI_FIFO1_ITM2_Pos)              /*!< TPI FIF
1095:Generated_Source\PSoC5/core_cm3.h **** 
1096:Generated_Source\PSoC5/core_cm3.h **** #define TPI_FIFO1_ITM1_Pos                  8U                                         /*!< TPI FIF
1097:Generated_Source\PSoC5/core_cm3.h **** #define TPI_FIFO1_ITM1_Msk                 (0xFFUL << TPI_FIFO1_ITM1_Pos)              /*!< TPI FIF
1098:Generated_Source\PSoC5/core_cm3.h **** 
1099:Generated_Source\PSoC5/core_cm3.h **** #define TPI_FIFO1_ITM0_Pos                  0U                                         /*!< TPI FIF
1100:Generated_Source\PSoC5/core_cm3.h **** #define TPI_FIFO1_ITM0_Msk                 (0xFFUL /*<< TPI_FIFO1_ITM0_Pos*/)          /*!< TPI FIF
1101:Generated_Source\PSoC5/core_cm3.h **** 
1102:Generated_Source\PSoC5/core_cm3.h **** /* TPI ITATBCTR0 Register Definitions */
1103:Generated_Source\PSoC5/core_cm3.h **** #define TPI_ITATBCTR0_ATREADY_Pos           0U                                         /*!< TPI ITA
1104:Generated_Source\PSoC5/core_cm3.h **** #define TPI_ITATBCTR0_ATREADY_Msk          (0x1UL /*<< TPI_ITATBCTR0_ATREADY_Pos*/)    /*!< TPI ITA
1105:Generated_Source\PSoC5/core_cm3.h **** 
1106:Generated_Source\PSoC5/core_cm3.h **** /* TPI Integration Mode Control Register Definitions */
1107:Generated_Source\PSoC5/core_cm3.h **** #define TPI_ITCTRL_Mode_Pos                 0U                                         /*!< TPI ITC
1108:Generated_Source\PSoC5/core_cm3.h **** #define TPI_ITCTRL_Mode_Msk                (0x1UL /*<< TPI_ITCTRL_Mode_Pos*/)          /*!< TPI ITC
1109:Generated_Source\PSoC5/core_cm3.h **** 
1110:Generated_Source\PSoC5/core_cm3.h **** /* TPI DEVID Register Definitions */
1111:Generated_Source\PSoC5/core_cm3.h **** #define TPI_DEVID_NRZVALID_Pos             11U                                         /*!< TPI DEV
1112:Generated_Source\PSoC5/core_cm3.h **** #define TPI_DEVID_NRZVALID_Msk             (0x1UL << TPI_DEVID_NRZVALID_Pos)           /*!< TPI DEV
1113:Generated_Source\PSoC5/core_cm3.h **** 
1114:Generated_Source\PSoC5/core_cm3.h **** #define TPI_DEVID_MANCVALID_Pos            10U                                         /*!< TPI DEV
1115:Generated_Source\PSoC5/core_cm3.h **** #define TPI_DEVID_MANCVALID_Msk            (0x1UL << TPI_DEVID_MANCVALID_Pos)          /*!< TPI DEV
1116:Generated_Source\PSoC5/core_cm3.h **** 
1117:Generated_Source\PSoC5/core_cm3.h **** #define TPI_DEVID_PTINVALID_Pos             9U                                         /*!< TPI DEV
1118:Generated_Source\PSoC5/core_cm3.h **** #define TPI_DEVID_PTINVALID_Msk            (0x1UL << TPI_DEVID_PTINVALID_Pos)          /*!< TPI DEV
1119:Generated_Source\PSoC5/core_cm3.h **** 
1120:Generated_Source\PSoC5/core_cm3.h **** #define TPI_DEVID_MinBufSz_Pos              6U                                         /*!< TPI DEV
1121:Generated_Source\PSoC5/core_cm3.h **** #define TPI_DEVID_MinBufSz_Msk             (0x7UL << TPI_DEVID_MinBufSz_Pos)           /*!< TPI DEV
1122:Generated_Source\PSoC5/core_cm3.h **** 
1123:Generated_Source\PSoC5/core_cm3.h **** #define TPI_DEVID_AsynClkIn_Pos             5U                                         /*!< TPI DEV
1124:Generated_Source\PSoC5/core_cm3.h **** #define TPI_DEVID_AsynClkIn_Msk            (0x1UL << TPI_DEVID_AsynClkIn_Pos)          /*!< TPI DEV
1125:Generated_Source\PSoC5/core_cm3.h **** 
1126:Generated_Source\PSoC5/core_cm3.h **** #define TPI_DEVID_NrTraceInput_Pos          0U                                         /*!< TPI DEV
1127:Generated_Source\PSoC5/core_cm3.h **** #define TPI_DEVID_NrTraceInput_Msk         (0x1FUL /*<< TPI_DEVID_NrTraceInput_Pos*/)  /*!< TPI DEV
1128:Generated_Source\PSoC5/core_cm3.h **** 
1129:Generated_Source\PSoC5/core_cm3.h **** /* TPI DEVTYPE Register Definitions */
1130:Generated_Source\PSoC5/core_cm3.h **** #define TPI_DEVTYPE_MajorType_Pos           4U                                         /*!< TPI DEV
1131:Generated_Source\PSoC5/core_cm3.h **** #define TPI_DEVTYPE_MajorType_Msk          (0xFUL << TPI_DEVTYPE_MajorType_Pos)        /*!< TPI DEV
1132:Generated_Source\PSoC5/core_cm3.h **** 
1133:Generated_Source\PSoC5/core_cm3.h **** #define TPI_DEVTYPE_SubType_Pos             0U                                         /*!< TPI DEV
1134:Generated_Source\PSoC5/core_cm3.h **** #define TPI_DEVTYPE_SubType_Msk            (0xFUL /*<< TPI_DEVTYPE_SubType_Pos*/)      /*!< TPI DEV
1135:Generated_Source\PSoC5/core_cm3.h **** 
1136:Generated_Source\PSoC5/core_cm3.h **** /*@}*/ /* end of group CMSIS_TPI */
1137:Generated_Source\PSoC5/core_cm3.h **** 
1138:Generated_Source\PSoC5/core_cm3.h **** 
1139:Generated_Source\PSoC5/core_cm3.h **** #if defined (__MPU_PRESENT) && (__MPU_PRESENT == 1U)
1140:Generated_Source\PSoC5/core_cm3.h **** /**
1141:Generated_Source\PSoC5/core_cm3.h ****   \ingroup  CMSIS_core_register
1142:Generated_Source\PSoC5/core_cm3.h ****   \defgroup CMSIS_MPU     Memory Protection Unit (MPU)
1143:Generated_Source\PSoC5/core_cm3.h ****   \brief    Type definitions for the Memory Protection Unit (MPU)
1144:Generated_Source\PSoC5/core_cm3.h ****   @{
1145:Generated_Source\PSoC5/core_cm3.h ****  */
ARM GAS  C:\Users\manuelfu\AppData\Local\Temp\ccrlKxnK.s 			page 23


1146:Generated_Source\PSoC5/core_cm3.h **** 
1147:Generated_Source\PSoC5/core_cm3.h **** /**
1148:Generated_Source\PSoC5/core_cm3.h ****   \brief  Structure type to access the Memory Protection Unit (MPU).
1149:Generated_Source\PSoC5/core_cm3.h ****  */
1150:Generated_Source\PSoC5/core_cm3.h **** typedef struct
1151:Generated_Source\PSoC5/core_cm3.h **** {
1152:Generated_Source\PSoC5/core_cm3.h ****   __IM  uint32_t TYPE;                   /*!< Offset: 0x000 (R/ )  MPU Type Register */
1153:Generated_Source\PSoC5/core_cm3.h ****   __IOM uint32_t CTRL;                   /*!< Offset: 0x004 (R/W)  MPU Control Register */
1154:Generated_Source\PSoC5/core_cm3.h ****   __IOM uint32_t RNR;                    /*!< Offset: 0x008 (R/W)  MPU Region RNRber Register */
1155:Generated_Source\PSoC5/core_cm3.h ****   __IOM uint32_t RBAR;                   /*!< Offset: 0x00C (R/W)  MPU Region Base Address Register
1156:Generated_Source\PSoC5/core_cm3.h ****   __IOM uint32_t RASR;                   /*!< Offset: 0x010 (R/W)  MPU Region Attribute and Size Re
1157:Generated_Source\PSoC5/core_cm3.h ****   __IOM uint32_t RBAR_A1;                /*!< Offset: 0x014 (R/W)  MPU Alias 1 Region Base Address 
1158:Generated_Source\PSoC5/core_cm3.h ****   __IOM uint32_t RASR_A1;                /*!< Offset: 0x018 (R/W)  MPU Alias 1 Region Attribute and
1159:Generated_Source\PSoC5/core_cm3.h ****   __IOM uint32_t RBAR_A2;                /*!< Offset: 0x01C (R/W)  MPU Alias 2 Region Base Address 
1160:Generated_Source\PSoC5/core_cm3.h ****   __IOM uint32_t RASR_A2;                /*!< Offset: 0x020 (R/W)  MPU Alias 2 Region Attribute and
1161:Generated_Source\PSoC5/core_cm3.h ****   __IOM uint32_t RBAR_A3;                /*!< Offset: 0x024 (R/W)  MPU Alias 3 Region Base Address 
1162:Generated_Source\PSoC5/core_cm3.h ****   __IOM uint32_t RASR_A3;                /*!< Offset: 0x028 (R/W)  MPU Alias 3 Region Attribute and
1163:Generated_Source\PSoC5/core_cm3.h **** } MPU_Type;
1164:Generated_Source\PSoC5/core_cm3.h **** 
1165:Generated_Source\PSoC5/core_cm3.h **** /* MPU Type Register Definitions */
1166:Generated_Source\PSoC5/core_cm3.h **** #define MPU_TYPE_IREGION_Pos               16U                                            /*!< MPU 
1167:Generated_Source\PSoC5/core_cm3.h **** #define MPU_TYPE_IREGION_Msk               (0xFFUL << MPU_TYPE_IREGION_Pos)               /*!< MPU 
1168:Generated_Source\PSoC5/core_cm3.h **** 
1169:Generated_Source\PSoC5/core_cm3.h **** #define MPU_TYPE_DREGION_Pos                8U                                            /*!< MPU 
1170:Generated_Source\PSoC5/core_cm3.h **** #define MPU_TYPE_DREGION_Msk               (0xFFUL << MPU_TYPE_DREGION_Pos)               /*!< MPU 
1171:Generated_Source\PSoC5/core_cm3.h **** 
1172:Generated_Source\PSoC5/core_cm3.h **** #define MPU_TYPE_SEPARATE_Pos               0U                                            /*!< MPU 
1173:Generated_Source\PSoC5/core_cm3.h **** #define MPU_TYPE_SEPARATE_Msk              (1UL /*<< MPU_TYPE_SEPARATE_Pos*/)             /*!< MPU 
1174:Generated_Source\PSoC5/core_cm3.h **** 
1175:Generated_Source\PSoC5/core_cm3.h **** /* MPU Control Register Definitions */
1176:Generated_Source\PSoC5/core_cm3.h **** #define MPU_CTRL_PRIVDEFENA_Pos             2U                                            /*!< MPU 
1177:Generated_Source\PSoC5/core_cm3.h **** #define MPU_CTRL_PRIVDEFENA_Msk            (1UL << MPU_CTRL_PRIVDEFENA_Pos)               /*!< MPU 
1178:Generated_Source\PSoC5/core_cm3.h **** 
1179:Generated_Source\PSoC5/core_cm3.h **** #define MPU_CTRL_HFNMIENA_Pos               1U                                            /*!< MPU 
1180:Generated_Source\PSoC5/core_cm3.h **** #define MPU_CTRL_HFNMIENA_Msk              (1UL << MPU_CTRL_HFNMIENA_Pos)                 /*!< MPU 
1181:Generated_Source\PSoC5/core_cm3.h **** 
1182:Generated_Source\PSoC5/core_cm3.h **** #define MPU_CTRL_ENABLE_Pos                 0U                                            /*!< MPU 
1183:Generated_Source\PSoC5/core_cm3.h **** #define MPU_CTRL_ENABLE_Msk                (1UL /*<< MPU_CTRL_ENABLE_Pos*/)               /*!< MPU 
1184:Generated_Source\PSoC5/core_cm3.h **** 
1185:Generated_Source\PSoC5/core_cm3.h **** /* MPU Region Number Register Definitions */
1186:Generated_Source\PSoC5/core_cm3.h **** #define MPU_RNR_REGION_Pos                  0U                                            /*!< MPU 
1187:Generated_Source\PSoC5/core_cm3.h **** #define MPU_RNR_REGION_Msk                 (0xFFUL /*<< MPU_RNR_REGION_Pos*/)             /*!< MPU 
1188:Generated_Source\PSoC5/core_cm3.h **** 
1189:Generated_Source\PSoC5/core_cm3.h **** /* MPU Region Base Address Register Definitions */
1190:Generated_Source\PSoC5/core_cm3.h **** #define MPU_RBAR_ADDR_Pos                   5U                                            /*!< MPU 
1191:Generated_Source\PSoC5/core_cm3.h **** #define MPU_RBAR_ADDR_Msk                  (0x7FFFFFFUL << MPU_RBAR_ADDR_Pos)             /*!< MPU 
1192:Generated_Source\PSoC5/core_cm3.h **** 
1193:Generated_Source\PSoC5/core_cm3.h **** #define MPU_RBAR_VALID_Pos                  4U                                            /*!< MPU 
1194:Generated_Source\PSoC5/core_cm3.h **** #define MPU_RBAR_VALID_Msk                 (1UL << MPU_RBAR_VALID_Pos)                    /*!< MPU 
1195:Generated_Source\PSoC5/core_cm3.h **** 
1196:Generated_Source\PSoC5/core_cm3.h **** #define MPU_RBAR_REGION_Pos                 0U                                            /*!< MPU 
1197:Generated_Source\PSoC5/core_cm3.h **** #define MPU_RBAR_REGION_Msk                (0xFUL /*<< MPU_RBAR_REGION_Pos*/)             /*!< MPU 
1198:Generated_Source\PSoC5/core_cm3.h **** 
1199:Generated_Source\PSoC5/core_cm3.h **** /* MPU Region Attribute and Size Register Definitions */
1200:Generated_Source\PSoC5/core_cm3.h **** #define MPU_RASR_ATTRS_Pos                 16U                                            /*!< MPU 
1201:Generated_Source\PSoC5/core_cm3.h **** #define MPU_RASR_ATTRS_Msk                 (0xFFFFUL << MPU_RASR_ATTRS_Pos)               /*!< MPU 
1202:Generated_Source\PSoC5/core_cm3.h **** 
ARM GAS  C:\Users\manuelfu\AppData\Local\Temp\ccrlKxnK.s 			page 24


1203:Generated_Source\PSoC5/core_cm3.h **** #define MPU_RASR_XN_Pos                    28U                                            /*!< MPU 
1204:Generated_Source\PSoC5/core_cm3.h **** #define MPU_RASR_XN_Msk                    (1UL << MPU_RASR_XN_Pos)                       /*!< MPU 
1205:Generated_Source\PSoC5/core_cm3.h **** 
1206:Generated_Source\PSoC5/core_cm3.h **** #define MPU_RASR_AP_Pos                    24U                                            /*!< MPU 
1207:Generated_Source\PSoC5/core_cm3.h **** #define MPU_RASR_AP_Msk                    (0x7UL << MPU_RASR_AP_Pos)                     /*!< MPU 
1208:Generated_Source\PSoC5/core_cm3.h **** 
1209:Generated_Source\PSoC5/core_cm3.h **** #define MPU_RASR_TEX_Pos                   19U                                            /*!< MPU 
1210:Generated_Source\PSoC5/core_cm3.h **** #define MPU_RASR_TEX_Msk                   (0x7UL << MPU_RASR_TEX_Pos)                    /*!< MPU 
1211:Generated_Source\PSoC5/core_cm3.h **** 
1212:Generated_Source\PSoC5/core_cm3.h **** #define MPU_RASR_S_Pos                     18U                                            /*!< MPU 
1213:Generated_Source\PSoC5/core_cm3.h **** #define MPU_RASR_S_Msk                     (1UL << MPU_RASR_S_Pos)                        /*!< MPU 
1214:Generated_Source\PSoC5/core_cm3.h **** 
1215:Generated_Source\PSoC5/core_cm3.h **** #define MPU_RASR_C_Pos                     17U                                            /*!< MPU 
1216:Generated_Source\PSoC5/core_cm3.h **** #define MPU_RASR_C_Msk                     (1UL << MPU_RASR_C_Pos)                        /*!< MPU 
1217:Generated_Source\PSoC5/core_cm3.h **** 
1218:Generated_Source\PSoC5/core_cm3.h **** #define MPU_RASR_B_Pos                     16U                                            /*!< MPU 
1219:Generated_Source\PSoC5/core_cm3.h **** #define MPU_RASR_B_Msk                     (1UL << MPU_RASR_B_Pos)                        /*!< MPU 
1220:Generated_Source\PSoC5/core_cm3.h **** 
1221:Generated_Source\PSoC5/core_cm3.h **** #define MPU_RASR_SRD_Pos                    8U                                            /*!< MPU 
1222:Generated_Source\PSoC5/core_cm3.h **** #define MPU_RASR_SRD_Msk                   (0xFFUL << MPU_RASR_SRD_Pos)                   /*!< MPU 
1223:Generated_Source\PSoC5/core_cm3.h **** 
1224:Generated_Source\PSoC5/core_cm3.h **** #define MPU_RASR_SIZE_Pos                   1U                                            /*!< MPU 
1225:Generated_Source\PSoC5/core_cm3.h **** #define MPU_RASR_SIZE_Msk                  (0x1FUL << MPU_RASR_SIZE_Pos)                  /*!< MPU 
1226:Generated_Source\PSoC5/core_cm3.h **** 
1227:Generated_Source\PSoC5/core_cm3.h **** #define MPU_RASR_ENABLE_Pos                 0U                                            /*!< MPU 
1228:Generated_Source\PSoC5/core_cm3.h **** #define MPU_RASR_ENABLE_Msk                (1UL /*<< MPU_RASR_ENABLE_Pos*/)               /*!< MPU 
1229:Generated_Source\PSoC5/core_cm3.h **** 
1230:Generated_Source\PSoC5/core_cm3.h **** /*@} end of group CMSIS_MPU */
1231:Generated_Source\PSoC5/core_cm3.h **** #endif
1232:Generated_Source\PSoC5/core_cm3.h **** 
1233:Generated_Source\PSoC5/core_cm3.h **** 
1234:Generated_Source\PSoC5/core_cm3.h **** /**
1235:Generated_Source\PSoC5/core_cm3.h ****   \ingroup  CMSIS_core_register
1236:Generated_Source\PSoC5/core_cm3.h ****   \defgroup CMSIS_CoreDebug       Core Debug Registers (CoreDebug)
1237:Generated_Source\PSoC5/core_cm3.h ****   \brief    Type definitions for the Core Debug Registers
1238:Generated_Source\PSoC5/core_cm3.h ****   @{
1239:Generated_Source\PSoC5/core_cm3.h ****  */
1240:Generated_Source\PSoC5/core_cm3.h **** 
1241:Generated_Source\PSoC5/core_cm3.h **** /**
1242:Generated_Source\PSoC5/core_cm3.h ****   \brief  Structure type to access the Core Debug Register (CoreDebug).
1243:Generated_Source\PSoC5/core_cm3.h ****  */
1244:Generated_Source\PSoC5/core_cm3.h **** typedef struct
1245:Generated_Source\PSoC5/core_cm3.h **** {
1246:Generated_Source\PSoC5/core_cm3.h ****   __IOM uint32_t DHCSR;                  /*!< Offset: 0x000 (R/W)  Debug Halting Control and Status
1247:Generated_Source\PSoC5/core_cm3.h ****   __OM  uint32_t DCRSR;                  /*!< Offset: 0x004 ( /W)  Debug Core Register Selector Reg
1248:Generated_Source\PSoC5/core_cm3.h ****   __IOM uint32_t DCRDR;                  /*!< Offset: 0x008 (R/W)  Debug Core Register Data Registe
1249:Generated_Source\PSoC5/core_cm3.h ****   __IOM uint32_t DEMCR;                  /*!< Offset: 0x00C (R/W)  Debug Exception and Monitor Cont
1250:Generated_Source\PSoC5/core_cm3.h **** } CoreDebug_Type;
1251:Generated_Source\PSoC5/core_cm3.h **** 
1252:Generated_Source\PSoC5/core_cm3.h **** /* Debug Halting Control and Status Register Definitions */
1253:Generated_Source\PSoC5/core_cm3.h **** #define CoreDebug_DHCSR_DBGKEY_Pos         16U                                            /*!< Core
1254:Generated_Source\PSoC5/core_cm3.h **** #define CoreDebug_DHCSR_DBGKEY_Msk         (0xFFFFUL << CoreDebug_DHCSR_DBGKEY_Pos)       /*!< Core
1255:Generated_Source\PSoC5/core_cm3.h **** 
1256:Generated_Source\PSoC5/core_cm3.h **** #define CoreDebug_DHCSR_S_RESET_ST_Pos     25U                                            /*!< Core
1257:Generated_Source\PSoC5/core_cm3.h **** #define CoreDebug_DHCSR_S_RESET_ST_Msk     (1UL << CoreDebug_DHCSR_S_RESET_ST_Pos)        /*!< Core
1258:Generated_Source\PSoC5/core_cm3.h **** 
1259:Generated_Source\PSoC5/core_cm3.h **** #define CoreDebug_DHCSR_S_RETIRE_ST_Pos    24U                                            /*!< Core
ARM GAS  C:\Users\manuelfu\AppData\Local\Temp\ccrlKxnK.s 			page 25


1260:Generated_Source\PSoC5/core_cm3.h **** #define CoreDebug_DHCSR_S_RETIRE_ST_Msk    (1UL << CoreDebug_DHCSR_S_RETIRE_ST_Pos)       /*!< Core
1261:Generated_Source\PSoC5/core_cm3.h **** 
1262:Generated_Source\PSoC5/core_cm3.h **** #define CoreDebug_DHCSR_S_LOCKUP_Pos       19U                                            /*!< Core
1263:Generated_Source\PSoC5/core_cm3.h **** #define CoreDebug_DHCSR_S_LOCKUP_Msk       (1UL << CoreDebug_DHCSR_S_LOCKUP_Pos)          /*!< Core
1264:Generated_Source\PSoC5/core_cm3.h **** 
1265:Generated_Source\PSoC5/core_cm3.h **** #define CoreDebug_DHCSR_S_SLEEP_Pos        18U                                            /*!< Core
1266:Generated_Source\PSoC5/core_cm3.h **** #define CoreDebug_DHCSR_S_SLEEP_Msk        (1UL << CoreDebug_DHCSR_S_SLEEP_Pos)           /*!< Core
1267:Generated_Source\PSoC5/core_cm3.h **** 
1268:Generated_Source\PSoC5/core_cm3.h **** #define CoreDebug_DHCSR_S_HALT_Pos         17U                                            /*!< Core
1269:Generated_Source\PSoC5/core_cm3.h **** #define CoreDebug_DHCSR_S_HALT_Msk         (1UL << CoreDebug_DHCSR_S_HALT_Pos)            /*!< Core
1270:Generated_Source\PSoC5/core_cm3.h **** 
1271:Generated_Source\PSoC5/core_cm3.h **** #define CoreDebug_DHCSR_S_REGRDY_Pos       16U                                            /*!< Core
1272:Generated_Source\PSoC5/core_cm3.h **** #define CoreDebug_DHCSR_S_REGRDY_Msk       (1UL << CoreDebug_DHCSR_S_REGRDY_Pos)          /*!< Core
1273:Generated_Source\PSoC5/core_cm3.h **** 
1274:Generated_Source\PSoC5/core_cm3.h **** #define CoreDebug_DHCSR_C_SNAPSTALL_Pos     5U                                            /*!< Core
1275:Generated_Source\PSoC5/core_cm3.h **** #define CoreDebug_DHCSR_C_SNAPSTALL_Msk    (1UL << CoreDebug_DHCSR_C_SNAPSTALL_Pos)       /*!< Core
1276:Generated_Source\PSoC5/core_cm3.h **** 
1277:Generated_Source\PSoC5/core_cm3.h **** #define CoreDebug_DHCSR_C_MASKINTS_Pos      3U                                            /*!< Core
1278:Generated_Source\PSoC5/core_cm3.h **** #define CoreDebug_DHCSR_C_MASKINTS_Msk     (1UL << CoreDebug_DHCSR_C_MASKINTS_Pos)        /*!< Core
1279:Generated_Source\PSoC5/core_cm3.h **** 
1280:Generated_Source\PSoC5/core_cm3.h **** #define CoreDebug_DHCSR_C_STEP_Pos          2U                                            /*!< Core
1281:Generated_Source\PSoC5/core_cm3.h **** #define CoreDebug_DHCSR_C_STEP_Msk         (1UL << CoreDebug_DHCSR_C_STEP_Pos)            /*!< Core
1282:Generated_Source\PSoC5/core_cm3.h **** 
1283:Generated_Source\PSoC5/core_cm3.h **** #define CoreDebug_DHCSR_C_HALT_Pos          1U                                            /*!< Core
1284:Generated_Source\PSoC5/core_cm3.h **** #define CoreDebug_DHCSR_C_HALT_Msk         (1UL << CoreDebug_DHCSR_C_HALT_Pos)            /*!< Core
1285:Generated_Source\PSoC5/core_cm3.h **** 
1286:Generated_Source\PSoC5/core_cm3.h **** #define CoreDebug_DHCSR_C_DEBUGEN_Pos       0U                                            /*!< Core
1287:Generated_Source\PSoC5/core_cm3.h **** #define CoreDebug_DHCSR_C_DEBUGEN_Msk      (1UL /*<< CoreDebug_DHCSR_C_DEBUGEN_Pos*/)     /*!< Core
1288:Generated_Source\PSoC5/core_cm3.h **** 
1289:Generated_Source\PSoC5/core_cm3.h **** /* Debug Core Register Selector Register Definitions */
1290:Generated_Source\PSoC5/core_cm3.h **** #define CoreDebug_DCRSR_REGWnR_Pos         16U                                            /*!< Core
1291:Generated_Source\PSoC5/core_cm3.h **** #define CoreDebug_DCRSR_REGWnR_Msk         (1UL << CoreDebug_DCRSR_REGWnR_Pos)            /*!< Core
1292:Generated_Source\PSoC5/core_cm3.h **** 
1293:Generated_Source\PSoC5/core_cm3.h **** #define CoreDebug_DCRSR_REGSEL_Pos          0U                                            /*!< Core
1294:Generated_Source\PSoC5/core_cm3.h **** #define CoreDebug_DCRSR_REGSEL_Msk         (0x1FUL /*<< CoreDebug_DCRSR_REGSEL_Pos*/)     /*!< Core
1295:Generated_Source\PSoC5/core_cm3.h **** 
1296:Generated_Source\PSoC5/core_cm3.h **** /* Debug Exception and Monitor Control Register Definitions */
1297:Generated_Source\PSoC5/core_cm3.h **** #define CoreDebug_DEMCR_TRCENA_Pos         24U                                            /*!< Core
1298:Generated_Source\PSoC5/core_cm3.h **** #define CoreDebug_DEMCR_TRCENA_Msk         (1UL << CoreDebug_DEMCR_TRCENA_Pos)            /*!< Core
1299:Generated_Source\PSoC5/core_cm3.h **** 
1300:Generated_Source\PSoC5/core_cm3.h **** #define CoreDebug_DEMCR_MON_REQ_Pos        19U                                            /*!< Core
1301:Generated_Source\PSoC5/core_cm3.h **** #define CoreDebug_DEMCR_MON_REQ_Msk        (1UL << CoreDebug_DEMCR_MON_REQ_Pos)           /*!< Core
1302:Generated_Source\PSoC5/core_cm3.h **** 
1303:Generated_Source\PSoC5/core_cm3.h **** #define CoreDebug_DEMCR_MON_STEP_Pos       18U                                            /*!< Core
1304:Generated_Source\PSoC5/core_cm3.h **** #define CoreDebug_DEMCR_MON_STEP_Msk       (1UL << CoreDebug_DEMCR_MON_STEP_Pos)          /*!< Core
1305:Generated_Source\PSoC5/core_cm3.h **** 
1306:Generated_Source\PSoC5/core_cm3.h **** #define CoreDebug_DEMCR_MON_PEND_Pos       17U                                            /*!< Core
1307:Generated_Source\PSoC5/core_cm3.h **** #define CoreDebug_DEMCR_MON_PEND_Msk       (1UL << CoreDebug_DEMCR_MON_PEND_Pos)          /*!< Core
1308:Generated_Source\PSoC5/core_cm3.h **** 
1309:Generated_Source\PSoC5/core_cm3.h **** #define CoreDebug_DEMCR_MON_EN_Pos         16U                                            /*!< Core
1310:Generated_Source\PSoC5/core_cm3.h **** #define CoreDebug_DEMCR_MON_EN_Msk         (1UL << CoreDebug_DEMCR_MON_EN_Pos)            /*!< Core
1311:Generated_Source\PSoC5/core_cm3.h **** 
1312:Generated_Source\PSoC5/core_cm3.h **** #define CoreDebug_DEMCR_VC_HARDERR_Pos     10U                                            /*!< Core
1313:Generated_Source\PSoC5/core_cm3.h **** #define CoreDebug_DEMCR_VC_HARDERR_Msk     (1UL << CoreDebug_DEMCR_VC_HARDERR_Pos)        /*!< Core
1314:Generated_Source\PSoC5/core_cm3.h **** 
1315:Generated_Source\PSoC5/core_cm3.h **** #define CoreDebug_DEMCR_VC_INTERR_Pos       9U                                            /*!< Core
1316:Generated_Source\PSoC5/core_cm3.h **** #define CoreDebug_DEMCR_VC_INTERR_Msk      (1UL << CoreDebug_DEMCR_VC_INTERR_Pos)         /*!< Core
ARM GAS  C:\Users\manuelfu\AppData\Local\Temp\ccrlKxnK.s 			page 26


1317:Generated_Source\PSoC5/core_cm3.h **** 
1318:Generated_Source\PSoC5/core_cm3.h **** #define CoreDebug_DEMCR_VC_BUSERR_Pos       8U                                            /*!< Core
1319:Generated_Source\PSoC5/core_cm3.h **** #define CoreDebug_DEMCR_VC_BUSERR_Msk      (1UL << CoreDebug_DEMCR_VC_BUSERR_Pos)         /*!< Core
1320:Generated_Source\PSoC5/core_cm3.h **** 
1321:Generated_Source\PSoC5/core_cm3.h **** #define CoreDebug_DEMCR_VC_STATERR_Pos      7U                                            /*!< Core
1322:Generated_Source\PSoC5/core_cm3.h **** #define CoreDebug_DEMCR_VC_STATERR_Msk     (1UL << CoreDebug_DEMCR_VC_STATERR_Pos)        /*!< Core
1323:Generated_Source\PSoC5/core_cm3.h **** 
1324:Generated_Source\PSoC5/core_cm3.h **** #define CoreDebug_DEMCR_VC_CHKERR_Pos       6U                                            /*!< Core
1325:Generated_Source\PSoC5/core_cm3.h **** #define CoreDebug_DEMCR_VC_CHKERR_Msk      (1UL << CoreDebug_DEMCR_VC_CHKERR_Pos)         /*!< Core
1326:Generated_Source\PSoC5/core_cm3.h **** 
1327:Generated_Source\PSoC5/core_cm3.h **** #define CoreDebug_DEMCR_VC_NOCPERR_Pos      5U                                            /*!< Core
1328:Generated_Source\PSoC5/core_cm3.h **** #define CoreDebug_DEMCR_VC_NOCPERR_Msk     (1UL << CoreDebug_DEMCR_VC_NOCPERR_Pos)        /*!< Core
1329:Generated_Source\PSoC5/core_cm3.h **** 
1330:Generated_Source\PSoC5/core_cm3.h **** #define CoreDebug_DEMCR_VC_MMERR_Pos        4U                                            /*!< Core
1331:Generated_Source\PSoC5/core_cm3.h **** #define CoreDebug_DEMCR_VC_MMERR_Msk       (1UL << CoreDebug_DEMCR_VC_MMERR_Pos)          /*!< Core
1332:Generated_Source\PSoC5/core_cm3.h **** 
1333:Generated_Source\PSoC5/core_cm3.h **** #define CoreDebug_DEMCR_VC_CORERESET_Pos    0U                                            /*!< Core
1334:Generated_Source\PSoC5/core_cm3.h **** #define CoreDebug_DEMCR_VC_CORERESET_Msk   (1UL /*<< CoreDebug_DEMCR_VC_CORERESET_Pos*/)  /*!< Core
1335:Generated_Source\PSoC5/core_cm3.h **** 
1336:Generated_Source\PSoC5/core_cm3.h **** /*@} end of group CMSIS_CoreDebug */
1337:Generated_Source\PSoC5/core_cm3.h **** 
1338:Generated_Source\PSoC5/core_cm3.h **** 
1339:Generated_Source\PSoC5/core_cm3.h **** /**
1340:Generated_Source\PSoC5/core_cm3.h ****   \ingroup    CMSIS_core_register
1341:Generated_Source\PSoC5/core_cm3.h ****   \defgroup   CMSIS_core_bitfield     Core register bit field macros
1342:Generated_Source\PSoC5/core_cm3.h ****   \brief      Macros for use with bit field definitions (xxx_Pos, xxx_Msk).
1343:Generated_Source\PSoC5/core_cm3.h ****   @{
1344:Generated_Source\PSoC5/core_cm3.h ****  */
1345:Generated_Source\PSoC5/core_cm3.h **** 
1346:Generated_Source\PSoC5/core_cm3.h **** /**
1347:Generated_Source\PSoC5/core_cm3.h ****   \brief   Mask and shift a bit field value for use in a register bit range.
1348:Generated_Source\PSoC5/core_cm3.h ****   \param[in] field  Name of the register bit field.
1349:Generated_Source\PSoC5/core_cm3.h ****   \param[in] value  Value of the bit field. This parameter is interpreted as an uint32_t type.
1350:Generated_Source\PSoC5/core_cm3.h ****   \return           Masked and shifted value.
1351:Generated_Source\PSoC5/core_cm3.h **** */
1352:Generated_Source\PSoC5/core_cm3.h **** #define _VAL2FLD(field, value)    (((uint32_t)(value) << field ## _Pos) & field ## _Msk)
1353:Generated_Source\PSoC5/core_cm3.h **** 
1354:Generated_Source\PSoC5/core_cm3.h **** /**
1355:Generated_Source\PSoC5/core_cm3.h ****   \brief     Mask and shift a register value to extract a bit filed value.
1356:Generated_Source\PSoC5/core_cm3.h ****   \param[in] field  Name of the register bit field.
1357:Generated_Source\PSoC5/core_cm3.h ****   \param[in] value  Value of register. This parameter is interpreted as an uint32_t type.
1358:Generated_Source\PSoC5/core_cm3.h ****   \return           Masked and shifted bit field value.
1359:Generated_Source\PSoC5/core_cm3.h **** */
1360:Generated_Source\PSoC5/core_cm3.h **** #define _FLD2VAL(field, value)    (((uint32_t)(value) & field ## _Msk) >> field ## _Pos)
1361:Generated_Source\PSoC5/core_cm3.h **** 
1362:Generated_Source\PSoC5/core_cm3.h **** /*@} end of group CMSIS_core_bitfield */
1363:Generated_Source\PSoC5/core_cm3.h **** 
1364:Generated_Source\PSoC5/core_cm3.h **** 
1365:Generated_Source\PSoC5/core_cm3.h **** /**
1366:Generated_Source\PSoC5/core_cm3.h ****   \ingroup    CMSIS_core_register
1367:Generated_Source\PSoC5/core_cm3.h ****   \defgroup   CMSIS_core_base     Core Definitions
1368:Generated_Source\PSoC5/core_cm3.h ****   \brief      Definitions for base addresses, unions, and structures.
1369:Generated_Source\PSoC5/core_cm3.h ****   @{
1370:Generated_Source\PSoC5/core_cm3.h ****  */
1371:Generated_Source\PSoC5/core_cm3.h **** 
1372:Generated_Source\PSoC5/core_cm3.h **** /* Memory mapping of Cortex-M3 Hardware */
1373:Generated_Source\PSoC5/core_cm3.h **** #define SCS_BASE            (0xE000E000UL)                            /*!< System Control Space Bas
ARM GAS  C:\Users\manuelfu\AppData\Local\Temp\ccrlKxnK.s 			page 27


1374:Generated_Source\PSoC5/core_cm3.h **** #define ITM_BASE            (0xE0000000UL)                            /*!< ITM Base Address */
1375:Generated_Source\PSoC5/core_cm3.h **** #define DWT_BASE            (0xE0001000UL)                            /*!< DWT Base Address */
1376:Generated_Source\PSoC5/core_cm3.h **** #define TPI_BASE            (0xE0040000UL)                            /*!< TPI Base Address */
1377:Generated_Source\PSoC5/core_cm3.h **** #define CoreDebug_BASE      (0xE000EDF0UL)                            /*!< Core Debug Base Address 
1378:Generated_Source\PSoC5/core_cm3.h **** #define SysTick_BASE        (SCS_BASE +  0x0010UL)                    /*!< SysTick Base Address */
1379:Generated_Source\PSoC5/core_cm3.h **** #define NVIC_BASE           (SCS_BASE +  0x0100UL)                    /*!< NVIC Base Address */
1380:Generated_Source\PSoC5/core_cm3.h **** #define SCB_BASE            (SCS_BASE +  0x0D00UL)                    /*!< System Control Block Bas
1381:Generated_Source\PSoC5/core_cm3.h **** 
1382:Generated_Source\PSoC5/core_cm3.h **** #define SCnSCB              ((SCnSCB_Type    *)     SCS_BASE      )   /*!< System control Register 
1383:Generated_Source\PSoC5/core_cm3.h **** #define SCB                 ((SCB_Type       *)     SCB_BASE      )   /*!< SCB configuration struct
1384:Generated_Source\PSoC5/core_cm3.h **** #define SysTick             ((SysTick_Type   *)     SysTick_BASE  )   /*!< SysTick configuration st
1385:Generated_Source\PSoC5/core_cm3.h **** #define NVIC                ((NVIC_Type      *)     NVIC_BASE     )   /*!< NVIC configuration struc
1386:Generated_Source\PSoC5/core_cm3.h **** #define ITM                 ((ITM_Type       *)     ITM_BASE      )   /*!< ITM configuration struct
1387:Generated_Source\PSoC5/core_cm3.h **** #define DWT                 ((DWT_Type       *)     DWT_BASE      )   /*!< DWT configuration struct
1388:Generated_Source\PSoC5/core_cm3.h **** #define TPI                 ((TPI_Type       *)     TPI_BASE      )   /*!< TPI configuration struct
1389:Generated_Source\PSoC5/core_cm3.h **** #define CoreDebug           ((CoreDebug_Type *)     CoreDebug_BASE)   /*!< Core Debug configuration
1390:Generated_Source\PSoC5/core_cm3.h **** 
1391:Generated_Source\PSoC5/core_cm3.h **** #if defined (__MPU_PRESENT) && (__MPU_PRESENT == 1U)
1392:Generated_Source\PSoC5/core_cm3.h ****   #define MPU_BASE          (SCS_BASE +  0x0D90UL)                    /*!< Memory Protection Unit *
1393:Generated_Source\PSoC5/core_cm3.h ****   #define MPU               ((MPU_Type       *)     MPU_BASE      )   /*!< Memory Protection Unit *
1394:Generated_Source\PSoC5/core_cm3.h **** #endif
1395:Generated_Source\PSoC5/core_cm3.h **** 
1396:Generated_Source\PSoC5/core_cm3.h **** /*@} */
1397:Generated_Source\PSoC5/core_cm3.h **** 
1398:Generated_Source\PSoC5/core_cm3.h **** 
1399:Generated_Source\PSoC5/core_cm3.h **** 
1400:Generated_Source\PSoC5/core_cm3.h **** /*******************************************************************************
1401:Generated_Source\PSoC5/core_cm3.h ****  *                Hardware Abstraction Layer
1402:Generated_Source\PSoC5/core_cm3.h ****   Core Function Interface contains:
1403:Generated_Source\PSoC5/core_cm3.h ****   - Core NVIC Functions
1404:Generated_Source\PSoC5/core_cm3.h ****   - Core SysTick Functions
1405:Generated_Source\PSoC5/core_cm3.h ****   - Core Debug Functions
1406:Generated_Source\PSoC5/core_cm3.h ****   - Core Register Access Functions
1407:Generated_Source\PSoC5/core_cm3.h ****  ******************************************************************************/
1408:Generated_Source\PSoC5/core_cm3.h **** /**
1409:Generated_Source\PSoC5/core_cm3.h ****   \defgroup CMSIS_Core_FunctionInterface Functions and Instructions Reference
1410:Generated_Source\PSoC5/core_cm3.h **** */
1411:Generated_Source\PSoC5/core_cm3.h **** 
1412:Generated_Source\PSoC5/core_cm3.h **** 
1413:Generated_Source\PSoC5/core_cm3.h **** 
1414:Generated_Source\PSoC5/core_cm3.h **** /* ##########################   NVIC functions  #################################### */
1415:Generated_Source\PSoC5/core_cm3.h **** /**
1416:Generated_Source\PSoC5/core_cm3.h ****   \ingroup  CMSIS_Core_FunctionInterface
1417:Generated_Source\PSoC5/core_cm3.h ****   \defgroup CMSIS_Core_NVICFunctions NVIC Functions
1418:Generated_Source\PSoC5/core_cm3.h ****   \brief    Functions that manage interrupts and exceptions via the NVIC.
1419:Generated_Source\PSoC5/core_cm3.h ****   @{
1420:Generated_Source\PSoC5/core_cm3.h ****  */
1421:Generated_Source\PSoC5/core_cm3.h **** 
1422:Generated_Source\PSoC5/core_cm3.h **** #define NVIC_USER_IRQ_OFFSET          16
1423:Generated_Source\PSoC5/core_cm3.h **** 
1424:Generated_Source\PSoC5/core_cm3.h **** 
1425:Generated_Source\PSoC5/core_cm3.h **** 
1426:Generated_Source\PSoC5/core_cm3.h **** /**
1427:Generated_Source\PSoC5/core_cm3.h ****   \brief   Set Priority Grouping
1428:Generated_Source\PSoC5/core_cm3.h ****   \details Sets the priority grouping field using the required unlock sequence.
1429:Generated_Source\PSoC5/core_cm3.h ****            The parameter PriorityGroup is assigned to the field SCB->AIRCR [10:8] PRIGROUP field.
1430:Generated_Source\PSoC5/core_cm3.h ****            Only values from 0..7 are used.
ARM GAS  C:\Users\manuelfu\AppData\Local\Temp\ccrlKxnK.s 			page 28


1431:Generated_Source\PSoC5/core_cm3.h ****            In case of a conflict between priority grouping and available
1432:Generated_Source\PSoC5/core_cm3.h ****            priority bits (__NVIC_PRIO_BITS), the smallest possible priority group is set.
1433:Generated_Source\PSoC5/core_cm3.h ****   \param [in]      PriorityGroup  Priority grouping field.
1434:Generated_Source\PSoC5/core_cm3.h ****  */
1435:Generated_Source\PSoC5/core_cm3.h **** __STATIC_INLINE void NVIC_SetPriorityGrouping(uint32_t PriorityGroup)
1436:Generated_Source\PSoC5/core_cm3.h **** {
1437:Generated_Source\PSoC5/core_cm3.h ****   uint32_t reg_value;
1438:Generated_Source\PSoC5/core_cm3.h ****   uint32_t PriorityGroupTmp = (PriorityGroup & (uint32_t)0x07UL);             /* only values 0..7 a
1439:Generated_Source\PSoC5/core_cm3.h **** 
1440:Generated_Source\PSoC5/core_cm3.h ****   reg_value  =  SCB->AIRCR;                                                   /* read old register 
1441:Generated_Source\PSoC5/core_cm3.h ****   reg_value &= ~((uint32_t)(SCB_AIRCR_VECTKEY_Msk | SCB_AIRCR_PRIGROUP_Msk)); /* clear bits to chan
1442:Generated_Source\PSoC5/core_cm3.h ****   reg_value  =  (reg_value                                   |
1443:Generated_Source\PSoC5/core_cm3.h ****                 ((uint32_t)0x5FAUL << SCB_AIRCR_VECTKEY_Pos) |
1444:Generated_Source\PSoC5/core_cm3.h ****                 (PriorityGroupTmp << 8U)                      );              /* Insert write key a
1445:Generated_Source\PSoC5/core_cm3.h ****   SCB->AIRCR =  reg_value;
1446:Generated_Source\PSoC5/core_cm3.h **** }
1447:Generated_Source\PSoC5/core_cm3.h **** 
1448:Generated_Source\PSoC5/core_cm3.h **** 
1449:Generated_Source\PSoC5/core_cm3.h **** /**
1450:Generated_Source\PSoC5/core_cm3.h ****   \brief   Get Priority Grouping
1451:Generated_Source\PSoC5/core_cm3.h ****   \details Reads the priority grouping field from the NVIC Interrupt Controller.
1452:Generated_Source\PSoC5/core_cm3.h ****   \return                Priority grouping field (SCB->AIRCR [10:8] PRIGROUP field).
1453:Generated_Source\PSoC5/core_cm3.h ****  */
1454:Generated_Source\PSoC5/core_cm3.h **** __STATIC_INLINE uint32_t NVIC_GetPriorityGrouping(void)
1455:Generated_Source\PSoC5/core_cm3.h **** {
1456:Generated_Source\PSoC5/core_cm3.h ****   return ((uint32_t)((SCB->AIRCR & SCB_AIRCR_PRIGROUP_Msk) >> SCB_AIRCR_PRIGROUP_Pos));
1457:Generated_Source\PSoC5/core_cm3.h **** }
1458:Generated_Source\PSoC5/core_cm3.h **** 
1459:Generated_Source\PSoC5/core_cm3.h **** 
1460:Generated_Source\PSoC5/core_cm3.h **** /**
1461:Generated_Source\PSoC5/core_cm3.h ****   \brief   Enable Interrupt
1462:Generated_Source\PSoC5/core_cm3.h ****   \details Enables a device specific interrupt in the NVIC interrupt controller.
1463:Generated_Source\PSoC5/core_cm3.h ****   \param [in]      IRQn  Device specific interrupt number.
1464:Generated_Source\PSoC5/core_cm3.h ****   \note    IRQn must not be negative.
1465:Generated_Source\PSoC5/core_cm3.h ****  */
1466:Generated_Source\PSoC5/core_cm3.h **** __STATIC_INLINE void NVIC_EnableIRQ(IRQn_Type IRQn)
1467:Generated_Source\PSoC5/core_cm3.h **** {
1468:Generated_Source\PSoC5/core_cm3.h ****   if ((int32_t)(IRQn) >= 0)
1469:Generated_Source\PSoC5/core_cm3.h ****   {
1470:Generated_Source\PSoC5/core_cm3.h ****     NVIC->ISER[(((uint32_t)(int32_t)IRQn) >> 5UL)] = (uint32_t)(1UL << (((uint32_t)(int32_t)IRQn) &
1471:Generated_Source\PSoC5/core_cm3.h ****   }
1472:Generated_Source\PSoC5/core_cm3.h **** }
1473:Generated_Source\PSoC5/core_cm3.h **** 
1474:Generated_Source\PSoC5/core_cm3.h **** 
1475:Generated_Source\PSoC5/core_cm3.h **** /**
1476:Generated_Source\PSoC5/core_cm3.h ****   \brief   Get Interrupt Enable status
1477:Generated_Source\PSoC5/core_cm3.h ****   \details Returns a device specific interrupt enable status from the NVIC interrupt controller.
1478:Generated_Source\PSoC5/core_cm3.h ****   \param [in]      IRQn  Device specific interrupt number.
1479:Generated_Source\PSoC5/core_cm3.h ****   \return             0  Interrupt is not enabled.
1480:Generated_Source\PSoC5/core_cm3.h ****   \return             1  Interrupt is enabled.
1481:Generated_Source\PSoC5/core_cm3.h ****   \note    IRQn must not be negative.
1482:Generated_Source\PSoC5/core_cm3.h ****  */
1483:Generated_Source\PSoC5/core_cm3.h **** __STATIC_INLINE uint32_t NVIC_GetEnableIRQ(IRQn_Type IRQn)
1484:Generated_Source\PSoC5/core_cm3.h **** {
1485:Generated_Source\PSoC5/core_cm3.h ****   if ((int32_t)(IRQn) >= 0)
1486:Generated_Source\PSoC5/core_cm3.h ****   {
1487:Generated_Source\PSoC5/core_cm3.h ****     return((uint32_t)(((NVIC->ISER[(((uint32_t)(int32_t)IRQn) >> 5UL)] & (1UL << (((uint32_t)(int32
ARM GAS  C:\Users\manuelfu\AppData\Local\Temp\ccrlKxnK.s 			page 29


1488:Generated_Source\PSoC5/core_cm3.h ****   }
1489:Generated_Source\PSoC5/core_cm3.h ****   else
1490:Generated_Source\PSoC5/core_cm3.h ****   {
1491:Generated_Source\PSoC5/core_cm3.h ****     return(0U);
1492:Generated_Source\PSoC5/core_cm3.h ****   }
1493:Generated_Source\PSoC5/core_cm3.h **** }
1494:Generated_Source\PSoC5/core_cm3.h **** 
1495:Generated_Source\PSoC5/core_cm3.h **** 
1496:Generated_Source\PSoC5/core_cm3.h **** /**
1497:Generated_Source\PSoC5/core_cm3.h ****   \brief   Disable Interrupt
1498:Generated_Source\PSoC5/core_cm3.h ****   \details Disables a device specific interrupt in the NVIC interrupt controller.
1499:Generated_Source\PSoC5/core_cm3.h ****   \param [in]      IRQn  Device specific interrupt number.
1500:Generated_Source\PSoC5/core_cm3.h ****   \note    IRQn must not be negative.
1501:Generated_Source\PSoC5/core_cm3.h ****  */
1502:Generated_Source\PSoC5/core_cm3.h **** __STATIC_INLINE void NVIC_DisableIRQ(IRQn_Type IRQn)
1503:Generated_Source\PSoC5/core_cm3.h **** {
1504:Generated_Source\PSoC5/core_cm3.h ****   if ((int32_t)(IRQn) >= 0)
1505:Generated_Source\PSoC5/core_cm3.h ****   {
1506:Generated_Source\PSoC5/core_cm3.h ****     NVIC->ICER[(((uint32_t)(int32_t)IRQn) >> 5UL)] = (uint32_t)(1UL << (((uint32_t)(int32_t)IRQn) &
1507:Generated_Source\PSoC5/core_cm3.h ****   }
1508:Generated_Source\PSoC5/core_cm3.h **** }
1509:Generated_Source\PSoC5/core_cm3.h **** 
1510:Generated_Source\PSoC5/core_cm3.h **** 
1511:Generated_Source\PSoC5/core_cm3.h **** /**
1512:Generated_Source\PSoC5/core_cm3.h ****   \brief   Get Pending Interrupt
1513:Generated_Source\PSoC5/core_cm3.h ****   \details Reads the NVIC pending register and returns the pending bit for the specified device spe
1514:Generated_Source\PSoC5/core_cm3.h ****   \param [in]      IRQn  Device specific interrupt number.
1515:Generated_Source\PSoC5/core_cm3.h ****   \return             0  Interrupt status is not pending.
1516:Generated_Source\PSoC5/core_cm3.h ****   \return             1  Interrupt status is pending.
1517:Generated_Source\PSoC5/core_cm3.h ****   \note    IRQn must not be negative.
1518:Generated_Source\PSoC5/core_cm3.h ****  */
1519:Generated_Source\PSoC5/core_cm3.h **** __STATIC_INLINE uint32_t NVIC_GetPendingIRQ(IRQn_Type IRQn)
1520:Generated_Source\PSoC5/core_cm3.h **** {
1521:Generated_Source\PSoC5/core_cm3.h ****   if ((int32_t)(IRQn) >= 0)
1522:Generated_Source\PSoC5/core_cm3.h ****   {
1523:Generated_Source\PSoC5/core_cm3.h ****     return((uint32_t)(((NVIC->ISPR[(((uint32_t)(int32_t)IRQn) >> 5UL)] & (1UL << (((uint32_t)(int32
1524:Generated_Source\PSoC5/core_cm3.h ****   }
1525:Generated_Source\PSoC5/core_cm3.h ****   else
1526:Generated_Source\PSoC5/core_cm3.h ****   {
1527:Generated_Source\PSoC5/core_cm3.h ****     return(0U);
1528:Generated_Source\PSoC5/core_cm3.h ****   }
1529:Generated_Source\PSoC5/core_cm3.h **** }
1530:Generated_Source\PSoC5/core_cm3.h **** 
1531:Generated_Source\PSoC5/core_cm3.h **** 
1532:Generated_Source\PSoC5/core_cm3.h **** /**
1533:Generated_Source\PSoC5/core_cm3.h ****   \brief   Set Pending Interrupt
1534:Generated_Source\PSoC5/core_cm3.h ****   \details Sets the pending bit of a device specific interrupt in the NVIC pending register.
1535:Generated_Source\PSoC5/core_cm3.h ****   \param [in]      IRQn  Device specific interrupt number.
1536:Generated_Source\PSoC5/core_cm3.h ****   \note    IRQn must not be negative.
1537:Generated_Source\PSoC5/core_cm3.h ****  */
1538:Generated_Source\PSoC5/core_cm3.h **** __STATIC_INLINE void NVIC_SetPendingIRQ(IRQn_Type IRQn)
1539:Generated_Source\PSoC5/core_cm3.h **** {
1540:Generated_Source\PSoC5/core_cm3.h ****   if ((int32_t)(IRQn) >= 0)
1541:Generated_Source\PSoC5/core_cm3.h ****   {
1542:Generated_Source\PSoC5/core_cm3.h ****     NVIC->ISPR[(((uint32_t)(int32_t)IRQn) >> 5UL)] = (uint32_t)(1UL << (((uint32_t)(int32_t)IRQn) &
1543:Generated_Source\PSoC5/core_cm3.h ****   }
1544:Generated_Source\PSoC5/core_cm3.h **** }
ARM GAS  C:\Users\manuelfu\AppData\Local\Temp\ccrlKxnK.s 			page 30


1545:Generated_Source\PSoC5/core_cm3.h **** 
1546:Generated_Source\PSoC5/core_cm3.h **** 
1547:Generated_Source\PSoC5/core_cm3.h **** /**
1548:Generated_Source\PSoC5/core_cm3.h ****   \brief   Clear Pending Interrupt
1549:Generated_Source\PSoC5/core_cm3.h ****   \details Clears the pending bit of a device specific interrupt in the NVIC pending register.
1550:Generated_Source\PSoC5/core_cm3.h ****   \param [in]      IRQn  Device specific interrupt number.
1551:Generated_Source\PSoC5/core_cm3.h ****   \note    IRQn must not be negative.
1552:Generated_Source\PSoC5/core_cm3.h ****  */
1553:Generated_Source\PSoC5/core_cm3.h **** __STATIC_INLINE void NVIC_ClearPendingIRQ(IRQn_Type IRQn)
1554:Generated_Source\PSoC5/core_cm3.h **** {
1555:Generated_Source\PSoC5/core_cm3.h ****   if ((int32_t)(IRQn) >= 0)
1556:Generated_Source\PSoC5/core_cm3.h ****   {
1557:Generated_Source\PSoC5/core_cm3.h ****     NVIC->ICPR[(((uint32_t)(int32_t)IRQn) >> 5UL)] = (uint32_t)(1UL << (((uint32_t)(int32_t)IRQn) &
1558:Generated_Source\PSoC5/core_cm3.h ****   }
1559:Generated_Source\PSoC5/core_cm3.h **** }
1560:Generated_Source\PSoC5/core_cm3.h **** 
1561:Generated_Source\PSoC5/core_cm3.h **** 
1562:Generated_Source\PSoC5/core_cm3.h **** /**
1563:Generated_Source\PSoC5/core_cm3.h ****   \brief   Get Active Interrupt
1564:Generated_Source\PSoC5/core_cm3.h ****   \details Reads the active register in the NVIC and returns the active bit for the device specific
1565:Generated_Source\PSoC5/core_cm3.h ****   \param [in]      IRQn  Device specific interrupt number.
1566:Generated_Source\PSoC5/core_cm3.h ****   \return             0  Interrupt status is not active.
1567:Generated_Source\PSoC5/core_cm3.h ****   \return             1  Interrupt status is active.
1568:Generated_Source\PSoC5/core_cm3.h ****   \note    IRQn must not be negative.
1569:Generated_Source\PSoC5/core_cm3.h ****  */
1570:Generated_Source\PSoC5/core_cm3.h **** __STATIC_INLINE uint32_t NVIC_GetActive(IRQn_Type IRQn)
1571:Generated_Source\PSoC5/core_cm3.h **** {
1572:Generated_Source\PSoC5/core_cm3.h ****   if ((int32_t)(IRQn) >= 0)
1573:Generated_Source\PSoC5/core_cm3.h ****   {
1574:Generated_Source\PSoC5/core_cm3.h ****     return((uint32_t)(((NVIC->IABR[(((uint32_t)(int32_t)IRQn) >> 5UL)] & (1UL << (((uint32_t)(int32
1575:Generated_Source\PSoC5/core_cm3.h ****   }
1576:Generated_Source\PSoC5/core_cm3.h ****   else
1577:Generated_Source\PSoC5/core_cm3.h ****   {
1578:Generated_Source\PSoC5/core_cm3.h ****     return(0U);
1579:Generated_Source\PSoC5/core_cm3.h ****   }
1580:Generated_Source\PSoC5/core_cm3.h **** }
1581:Generated_Source\PSoC5/core_cm3.h **** 
1582:Generated_Source\PSoC5/core_cm3.h **** 
1583:Generated_Source\PSoC5/core_cm3.h **** /**
1584:Generated_Source\PSoC5/core_cm3.h ****   \brief   Set Interrupt Priority
1585:Generated_Source\PSoC5/core_cm3.h ****   \details Sets the priority of a device specific interrupt or a processor exception.
1586:Generated_Source\PSoC5/core_cm3.h ****            The interrupt number can be positive to specify a device specific interrupt,
1587:Generated_Source\PSoC5/core_cm3.h ****            or negative to specify a processor exception.
1588:Generated_Source\PSoC5/core_cm3.h ****   \param [in]      IRQn  Interrupt number.
1589:Generated_Source\PSoC5/core_cm3.h ****   \param [in]  priority  Priority to set.
1590:Generated_Source\PSoC5/core_cm3.h ****   \note    The priority cannot be set for every processor exception.
1591:Generated_Source\PSoC5/core_cm3.h ****  */
1592:Generated_Source\PSoC5/core_cm3.h **** __STATIC_INLINE void NVIC_SetPriority(IRQn_Type IRQn, uint32_t priority)
1593:Generated_Source\PSoC5/core_cm3.h **** {
1594:Generated_Source\PSoC5/core_cm3.h ****   if ((int32_t)(IRQn) >= 0)
1595:Generated_Source\PSoC5/core_cm3.h ****   {
1596:Generated_Source\PSoC5/core_cm3.h ****     NVIC->IP[((uint32_t)(int32_t)IRQn)]               = (uint8_t)((priority << (8U - __NVIC_PRIO_BI
1597:Generated_Source\PSoC5/core_cm3.h ****   }
1598:Generated_Source\PSoC5/core_cm3.h ****   else
1599:Generated_Source\PSoC5/core_cm3.h ****   {
1600:Generated_Source\PSoC5/core_cm3.h ****     SCB->SHP[(((uint32_t)(int32_t)IRQn) & 0xFUL)-4UL] = (uint8_t)((priority << (8U - __NVIC_PRIO_BI
1601:Generated_Source\PSoC5/core_cm3.h ****   }
ARM GAS  C:\Users\manuelfu\AppData\Local\Temp\ccrlKxnK.s 			page 31


1602:Generated_Source\PSoC5/core_cm3.h **** }
1603:Generated_Source\PSoC5/core_cm3.h **** 
1604:Generated_Source\PSoC5/core_cm3.h **** 
1605:Generated_Source\PSoC5/core_cm3.h **** /**
1606:Generated_Source\PSoC5/core_cm3.h ****   \brief   Get Interrupt Priority
1607:Generated_Source\PSoC5/core_cm3.h ****   \details Reads the priority of a device specific interrupt or a processor exception.
1608:Generated_Source\PSoC5/core_cm3.h ****            The interrupt number can be positive to specify a device specific interrupt,
1609:Generated_Source\PSoC5/core_cm3.h ****            or negative to specify a processor exception.
1610:Generated_Source\PSoC5/core_cm3.h ****   \param [in]   IRQn  Interrupt number.
1611:Generated_Source\PSoC5/core_cm3.h ****   \return             Interrupt Priority.
1612:Generated_Source\PSoC5/core_cm3.h ****                       Value is aligned automatically to the implemented priority bits of the microc
1613:Generated_Source\PSoC5/core_cm3.h ****  */
1614:Generated_Source\PSoC5/core_cm3.h **** __STATIC_INLINE uint32_t NVIC_GetPriority(IRQn_Type IRQn)
1615:Generated_Source\PSoC5/core_cm3.h **** {
1616:Generated_Source\PSoC5/core_cm3.h **** 
1617:Generated_Source\PSoC5/core_cm3.h ****   if ((int32_t)(IRQn) >= 0)
1618:Generated_Source\PSoC5/core_cm3.h ****   {
1619:Generated_Source\PSoC5/core_cm3.h ****     return(((uint32_t)NVIC->IP[((uint32_t)(int32_t)IRQn)]               >> (8U - __NVIC_PRIO_BITS))
1620:Generated_Source\PSoC5/core_cm3.h ****   }
1621:Generated_Source\PSoC5/core_cm3.h ****   else
1622:Generated_Source\PSoC5/core_cm3.h ****   {
1623:Generated_Source\PSoC5/core_cm3.h ****     return(((uint32_t)SCB->SHP[(((uint32_t)(int32_t)IRQn) & 0xFUL)-4UL] >> (8U - __NVIC_PRIO_BITS))
1624:Generated_Source\PSoC5/core_cm3.h ****   }
1625:Generated_Source\PSoC5/core_cm3.h **** }
1626:Generated_Source\PSoC5/core_cm3.h **** 
1627:Generated_Source\PSoC5/core_cm3.h **** 
1628:Generated_Source\PSoC5/core_cm3.h **** /**
1629:Generated_Source\PSoC5/core_cm3.h ****   \brief   Encode Priority
1630:Generated_Source\PSoC5/core_cm3.h ****   \details Encodes the priority for an interrupt with the given priority group,
1631:Generated_Source\PSoC5/core_cm3.h ****            preemptive priority value, and subpriority value.
1632:Generated_Source\PSoC5/core_cm3.h ****            In case of a conflict between priority grouping and available
1633:Generated_Source\PSoC5/core_cm3.h ****            priority bits (__NVIC_PRIO_BITS), the smallest possible priority group is set.
1634:Generated_Source\PSoC5/core_cm3.h ****   \param [in]     PriorityGroup  Used priority group.
1635:Generated_Source\PSoC5/core_cm3.h ****   \param [in]   PreemptPriority  Preemptive priority value (starting from 0).
1636:Generated_Source\PSoC5/core_cm3.h ****   \param [in]       SubPriority  Subpriority value (starting from 0).
1637:Generated_Source\PSoC5/core_cm3.h ****   \return                        Encoded priority. Value can be used in the function \ref NVIC_SetP
1638:Generated_Source\PSoC5/core_cm3.h ****  */
1639:Generated_Source\PSoC5/core_cm3.h **** __STATIC_INLINE uint32_t NVIC_EncodePriority (uint32_t PriorityGroup, uint32_t PreemptPriority, uin
1640:Generated_Source\PSoC5/core_cm3.h **** {
1641:Generated_Source\PSoC5/core_cm3.h ****   uint32_t PriorityGroupTmp = (PriorityGroup & (uint32_t)0x07UL);   /* only values 0..7 are used   
1642:Generated_Source\PSoC5/core_cm3.h ****   uint32_t PreemptPriorityBits;
1643:Generated_Source\PSoC5/core_cm3.h ****   uint32_t SubPriorityBits;
1644:Generated_Source\PSoC5/core_cm3.h **** 
1645:Generated_Source\PSoC5/core_cm3.h ****   PreemptPriorityBits = ((7UL - PriorityGroupTmp) > (uint32_t)(__NVIC_PRIO_BITS)) ? (uint32_t)(__NV
1646:Generated_Source\PSoC5/core_cm3.h ****   SubPriorityBits     = ((PriorityGroupTmp + (uint32_t)(__NVIC_PRIO_BITS)) < (uint32_t)7UL) ? (uint
1647:Generated_Source\PSoC5/core_cm3.h **** 
1648:Generated_Source\PSoC5/core_cm3.h ****   return (
1649:Generated_Source\PSoC5/core_cm3.h ****            ((PreemptPriority & (uint32_t)((1UL << (PreemptPriorityBits)) - 1UL)) << SubPriorityBits
1650:Generated_Source\PSoC5/core_cm3.h ****            ((SubPriority     & (uint32_t)((1UL << (SubPriorityBits    )) - 1UL)))
1651:Generated_Source\PSoC5/core_cm3.h ****          );
1652:Generated_Source\PSoC5/core_cm3.h **** }
1653:Generated_Source\PSoC5/core_cm3.h **** 
1654:Generated_Source\PSoC5/core_cm3.h **** 
1655:Generated_Source\PSoC5/core_cm3.h **** /**
1656:Generated_Source\PSoC5/core_cm3.h ****   \brief   Decode Priority
1657:Generated_Source\PSoC5/core_cm3.h ****   \details Decodes an interrupt priority value with a given priority group to
1658:Generated_Source\PSoC5/core_cm3.h ****            preemptive priority value and subpriority value.
ARM GAS  C:\Users\manuelfu\AppData\Local\Temp\ccrlKxnK.s 			page 32


1659:Generated_Source\PSoC5/core_cm3.h ****            In case of a conflict between priority grouping and available
1660:Generated_Source\PSoC5/core_cm3.h ****            priority bits (__NVIC_PRIO_BITS) the smallest possible priority group is set.
1661:Generated_Source\PSoC5/core_cm3.h ****   \param [in]         Priority   Priority value, which can be retrieved with the function \ref NVIC
1662:Generated_Source\PSoC5/core_cm3.h ****   \param [in]     PriorityGroup  Used priority group.
1663:Generated_Source\PSoC5/core_cm3.h ****   \param [out] pPreemptPriority  Preemptive priority value (starting from 0).
1664:Generated_Source\PSoC5/core_cm3.h ****   \param [out]     pSubPriority  Subpriority value (starting from 0).
1665:Generated_Source\PSoC5/core_cm3.h ****  */
1666:Generated_Source\PSoC5/core_cm3.h **** __STATIC_INLINE void NVIC_DecodePriority (uint32_t Priority, uint32_t PriorityGroup, uint32_t* cons
1667:Generated_Source\PSoC5/core_cm3.h **** {
1668:Generated_Source\PSoC5/core_cm3.h ****   uint32_t PriorityGroupTmp = (PriorityGroup & (uint32_t)0x07UL);   /* only values 0..7 are used   
1669:Generated_Source\PSoC5/core_cm3.h ****   uint32_t PreemptPriorityBits;
1670:Generated_Source\PSoC5/core_cm3.h ****   uint32_t SubPriorityBits;
1671:Generated_Source\PSoC5/core_cm3.h **** 
1672:Generated_Source\PSoC5/core_cm3.h ****   PreemptPriorityBits = ((7UL - PriorityGroupTmp) > (uint32_t)(__NVIC_PRIO_BITS)) ? (uint32_t)(__NV
1673:Generated_Source\PSoC5/core_cm3.h ****   SubPriorityBits     = ((PriorityGroupTmp + (uint32_t)(__NVIC_PRIO_BITS)) < (uint32_t)7UL) ? (uint
1674:Generated_Source\PSoC5/core_cm3.h **** 
1675:Generated_Source\PSoC5/core_cm3.h ****   *pPreemptPriority = (Priority >> SubPriorityBits) & (uint32_t)((1UL << (PreemptPriorityBits)) - 1
1676:Generated_Source\PSoC5/core_cm3.h ****   *pSubPriority     = (Priority                   ) & (uint32_t)((1UL << (SubPriorityBits    )) - 1
1677:Generated_Source\PSoC5/core_cm3.h **** }
1678:Generated_Source\PSoC5/core_cm3.h **** 
1679:Generated_Source\PSoC5/core_cm3.h **** 
1680:Generated_Source\PSoC5/core_cm3.h **** /**
1681:Generated_Source\PSoC5/core_cm3.h ****   \brief   Set Interrupt Vector
1682:Generated_Source\PSoC5/core_cm3.h ****   \details Sets an interrupt vector in SRAM based interrupt vector table.
1683:Generated_Source\PSoC5/core_cm3.h ****            The interrupt number can be positive to specify a device specific interrupt,
1684:Generated_Source\PSoC5/core_cm3.h ****            or negative to specify a processor exception.
1685:Generated_Source\PSoC5/core_cm3.h ****            VTOR must been relocated to SRAM before.
1686:Generated_Source\PSoC5/core_cm3.h ****   \param [in]   IRQn      Interrupt number
1687:Generated_Source\PSoC5/core_cm3.h ****   \param [in]   vector    Address of interrupt handler function
1688:Generated_Source\PSoC5/core_cm3.h ****  */
1689:Generated_Source\PSoC5/core_cm3.h **** __STATIC_INLINE void NVIC_SetVector(IRQn_Type IRQn, uint32_t vector)
1690:Generated_Source\PSoC5/core_cm3.h **** {
1691:Generated_Source\PSoC5/core_cm3.h ****     uint32_t *vectors = (uint32_t *)SCB->VTOR;
1692:Generated_Source\PSoC5/core_cm3.h ****     vectors[(int32_t)IRQn + NVIC_USER_IRQ_OFFSET] = vector;
1693:Generated_Source\PSoC5/core_cm3.h **** }
1694:Generated_Source\PSoC5/core_cm3.h **** 
1695:Generated_Source\PSoC5/core_cm3.h **** 
1696:Generated_Source\PSoC5/core_cm3.h **** /**
1697:Generated_Source\PSoC5/core_cm3.h ****   \brief   Get Interrupt Vector
1698:Generated_Source\PSoC5/core_cm3.h ****   \details Reads an interrupt vector from interrupt vector table.
1699:Generated_Source\PSoC5/core_cm3.h ****            The interrupt number can be positive to specify a device specific interrupt,
1700:Generated_Source\PSoC5/core_cm3.h ****            or negative to specify a processor exception.
1701:Generated_Source\PSoC5/core_cm3.h ****   \param [in]   IRQn      Interrupt number.
1702:Generated_Source\PSoC5/core_cm3.h ****   \return                 Address of interrupt handler function
1703:Generated_Source\PSoC5/core_cm3.h ****  */
1704:Generated_Source\PSoC5/core_cm3.h **** __STATIC_INLINE uint32_t NVIC_GetVector(IRQn_Type IRQn)
1705:Generated_Source\PSoC5/core_cm3.h **** {
1706:Generated_Source\PSoC5/core_cm3.h ****     uint32_t *vectors = (uint32_t *)SCB->VTOR;
1707:Generated_Source\PSoC5/core_cm3.h ****     return vectors[(int32_t)IRQn + NVIC_USER_IRQ_OFFSET];
1708:Generated_Source\PSoC5/core_cm3.h **** }
1709:Generated_Source\PSoC5/core_cm3.h **** 
1710:Generated_Source\PSoC5/core_cm3.h **** 
1711:Generated_Source\PSoC5/core_cm3.h **** /**
1712:Generated_Source\PSoC5/core_cm3.h ****   \brief   System Reset
1713:Generated_Source\PSoC5/core_cm3.h ****   \details Initiates a system reset request to reset the MCU.
1714:Generated_Source\PSoC5/core_cm3.h ****  */
1715:Generated_Source\PSoC5/core_cm3.h **** __STATIC_INLINE void NVIC_SystemReset(void)
ARM GAS  C:\Users\manuelfu\AppData\Local\Temp\ccrlKxnK.s 			page 33


1716:Generated_Source\PSoC5/core_cm3.h **** {
1717:Generated_Source\PSoC5/core_cm3.h ****   __DSB();                                                          /* Ensure all outstanding memor
1718:Generated_Source\PSoC5/core_cm3.h ****                                                                        buffered write are completed
1719:Generated_Source\PSoC5/core_cm3.h ****   SCB->AIRCR  = (uint32_t)((0x5FAUL << SCB_AIRCR_VECTKEY_Pos)    |
1720:Generated_Source\PSoC5/core_cm3.h ****                            (SCB->AIRCR & SCB_AIRCR_PRIGROUP_Msk) |
1721:Generated_Source\PSoC5/core_cm3.h ****                             SCB_AIRCR_SYSRESETREQ_Msk    );         /* Keep priority group unchange
1722:Generated_Source\PSoC5/core_cm3.h ****   __DSB();                                                          /* Ensure completion of memory 
1723:Generated_Source\PSoC5/core_cm3.h **** 
1724:Generated_Source\PSoC5/core_cm3.h ****   for(;;)                                                           /* wait until reset */
1725:Generated_Source\PSoC5/core_cm3.h ****   {
1726:Generated_Source\PSoC5/core_cm3.h ****     __NOP();
1727:Generated_Source\PSoC5/core_cm3.h ****   }
1728:Generated_Source\PSoC5/core_cm3.h **** }
1729:Generated_Source\PSoC5/core_cm3.h **** 
1730:Generated_Source\PSoC5/core_cm3.h **** /*@} end of CMSIS_Core_NVICFunctions */
1731:Generated_Source\PSoC5/core_cm3.h **** 
1732:Generated_Source\PSoC5/core_cm3.h **** 
1733:Generated_Source\PSoC5/core_cm3.h **** /* ##########################  FPU functions  #################################### */
1734:Generated_Source\PSoC5/core_cm3.h **** /**
1735:Generated_Source\PSoC5/core_cm3.h ****   \ingroup  CMSIS_Core_FunctionInterface
1736:Generated_Source\PSoC5/core_cm3.h ****   \defgroup CMSIS_Core_FpuFunctions FPU Functions
1737:Generated_Source\PSoC5/core_cm3.h ****   \brief    Function that provides FPU type.
1738:Generated_Source\PSoC5/core_cm3.h ****   @{
1739:Generated_Source\PSoC5/core_cm3.h ****  */
1740:Generated_Source\PSoC5/core_cm3.h **** 
1741:Generated_Source\PSoC5/core_cm3.h **** /**
1742:Generated_Source\PSoC5/core_cm3.h ****   \brief   get FPU type
1743:Generated_Source\PSoC5/core_cm3.h ****   \details returns the FPU type
1744:Generated_Source\PSoC5/core_cm3.h ****   \returns
1745:Generated_Source\PSoC5/core_cm3.h ****    - \b  0: No FPU
1746:Generated_Source\PSoC5/core_cm3.h ****    - \b  1: Single precision FPU
1747:Generated_Source\PSoC5/core_cm3.h ****    - \b  2: Double + Single precision FPU
1748:Generated_Source\PSoC5/core_cm3.h ****  */
1749:Generated_Source\PSoC5/core_cm3.h **** __STATIC_INLINE uint32_t SCB_GetFPUType(void)
1750:Generated_Source\PSoC5/core_cm3.h **** {
1751:Generated_Source\PSoC5/core_cm3.h ****     return 0U;           /* No FPU */
1752:Generated_Source\PSoC5/core_cm3.h **** }
1753:Generated_Source\PSoC5/core_cm3.h **** 
1754:Generated_Source\PSoC5/core_cm3.h **** 
1755:Generated_Source\PSoC5/core_cm3.h **** /*@} end of CMSIS_Core_FpuFunctions */
1756:Generated_Source\PSoC5/core_cm3.h **** 
1757:Generated_Source\PSoC5/core_cm3.h **** 
1758:Generated_Source\PSoC5/core_cm3.h **** 
1759:Generated_Source\PSoC5/core_cm3.h **** /* ##################################    SysTick function  ########################################
1760:Generated_Source\PSoC5/core_cm3.h **** /**
1761:Generated_Source\PSoC5/core_cm3.h ****   \ingroup  CMSIS_Core_FunctionInterface
1762:Generated_Source\PSoC5/core_cm3.h ****   \defgroup CMSIS_Core_SysTickFunctions SysTick Functions
1763:Generated_Source\PSoC5/core_cm3.h ****   \brief    Functions that configure the System.
1764:Generated_Source\PSoC5/core_cm3.h ****   @{
1765:Generated_Source\PSoC5/core_cm3.h ****  */
1766:Generated_Source\PSoC5/core_cm3.h **** 
1767:Generated_Source\PSoC5/core_cm3.h **** #if defined (__Vendor_SysTickConfig) && (__Vendor_SysTickConfig == 0U)
1768:Generated_Source\PSoC5/core_cm3.h **** 
1769:Generated_Source\PSoC5/core_cm3.h **** /**
1770:Generated_Source\PSoC5/core_cm3.h ****   \brief   System Tick Configuration
1771:Generated_Source\PSoC5/core_cm3.h ****   \details Initializes the System Timer and its interrupt, and starts the System Tick Timer.
1772:Generated_Source\PSoC5/core_cm3.h ****            Counter is in free running mode to generate periodic interrupts.
ARM GAS  C:\Users\manuelfu\AppData\Local\Temp\ccrlKxnK.s 			page 34


1773:Generated_Source\PSoC5/core_cm3.h ****   \param [in]  ticks  Number of ticks between two interrupts.
1774:Generated_Source\PSoC5/core_cm3.h ****   \return          0  Function succeeded.
1775:Generated_Source\PSoC5/core_cm3.h ****   \return          1  Function failed.
1776:Generated_Source\PSoC5/core_cm3.h ****   \note    When the variable <b>__Vendor_SysTickConfig</b> is set to 1, then the
1777:Generated_Source\PSoC5/core_cm3.h ****            function <b>SysTick_Config</b> is not included. In this case, the file <b><i>device</i>.
1778:Generated_Source\PSoC5/core_cm3.h ****            must contain a vendor-specific implementation of this function.
1779:Generated_Source\PSoC5/core_cm3.h ****  */
1780:Generated_Source\PSoC5/core_cm3.h **** __STATIC_INLINE uint32_t SysTick_Config(uint32_t ticks)
1781:Generated_Source\PSoC5/core_cm3.h **** {
1782:Generated_Source\PSoC5/core_cm3.h ****   if ((ticks - 1UL) > SysTick_LOAD_RELOAD_Msk)
1783:Generated_Source\PSoC5/core_cm3.h ****   {
1784:Generated_Source\PSoC5/core_cm3.h ****     return (1UL);                                                   /* Reload value impossible */
1785:Generated_Source\PSoC5/core_cm3.h ****   }
1786:Generated_Source\PSoC5/core_cm3.h **** 
1787:Generated_Source\PSoC5/core_cm3.h ****   SysTick->LOAD  = (uint32_t)(ticks - 1UL);                         /* set reload register */
  87              		.loc 2 1787 0
  88 0016 084B     		ldr	r3, .L8+8
  89 0018 45F6BF52 		movw	r2, #23999
  90 001c 5A60     		str	r2, [r3, #4]
  91              	.LVL3:
  92              	.LBB10:
  93              	.LBB11:
1600:Generated_Source\PSoC5/core_cm3.h ****   }
  94              		.loc 2 1600 0
  95 001e E021     		movs	r1, #224
  96 0020 064A     		ldr	r2, .L8+12
  97 0022 82F82310 		strb	r1, [r2, #35]
  98              	.LVL4:
  99              	.LBE11:
 100              	.LBE10:
1788:Generated_Source\PSoC5/core_cm3.h ****   NVIC_SetPriority (SysTick_IRQn, (1UL << __NVIC_PRIO_BITS) - 1UL); /* set Priority for Systick Int
1789:Generated_Source\PSoC5/core_cm3.h ****   SysTick->VAL   = 0UL;                                             /* Load the SysTick Counter Val
 101              		.loc 2 1789 0
 102 0026 0022     		movs	r2, #0
 103 0028 9A60     		str	r2, [r3, #8]
1790:Generated_Source\PSoC5/core_cm3.h ****   SysTick->CTRL  = SysTick_CTRL_CLKSOURCE_Msk |
 104              		.loc 2 1790 0
 105 002a 0722     		movs	r2, #7
 106 002c 1A60     		str	r2, [r3]
 107              	.LVL5:
 108              	.L5:
 109 002e 08BD     		pop	{r3, pc}
 110              	.L9:
 111              		.align	2
 112              	.L8:
 113 0030 00000000 		.word	.LANCHOR0
 114 0034 00000000 		.word	USER_ISR
 115 0038 10E000E0 		.word	-536813552
 116 003c 00ED00E0 		.word	-536810240
 117              	.LBE9:
 118              	.LBE8:
 119              		.cfi_endproc
 120              	.LFE64:
 121              		.size	Systick_Start, .-Systick_Start
 122              		.section	.text.GetTicks,"ax",%progbits
 123              		.align	2
 124              		.global	GetTicks
ARM GAS  C:\Users\manuelfu\AppData\Local\Temp\ccrlKxnK.s 			page 35


 125              		.thumb
 126              		.thumb_func
 127              		.type	GetTicks, %function
 128              	GetTicks:
 129              	.LFB65:
  24:ZumoLibrary/Systick.c ****         // Enable Systick timer with desired period/number of ticks
  25:ZumoLibrary/Systick.c ****         SysTick_Config(BCLK__BUS_CLK__HZ / 1000);  
  26:ZumoLibrary/Systick.c ****     }
  27:ZumoLibrary/Systick.c **** }
  28:ZumoLibrary/Systick.c **** 
  29:ZumoLibrary/Systick.c **** uint32_t GetTicks(void)
  30:ZumoLibrary/Systick.c **** {
 130              		.loc 1 30 0
 131              		.cfi_startproc
 132              		@ args = 0, pretend = 0, frame = 0
 133              		@ frame_needed = 0, uses_anonymous_args = 0
 134              		@ link register save eliminated.
  31:ZumoLibrary/Systick.c ****     return systicks;
 135              		.loc 1 31 0
 136 0000 014B     		ldr	r3, .L11
 137 0002 1868     		ldr	r0, [r3]
  32:ZumoLibrary/Systick.c **** }
 138              		.loc 1 32 0
 139 0004 7047     		bx	lr
 140              	.L12:
 141 0006 00BF     		.align	2
 142              	.L11:
 143 0008 00000000 		.word	.LANCHOR0
 144              		.cfi_endproc
 145              	.LFE65:
 146              		.size	GetTicks, .-GetTicks
 147              		.bss
 148              		.align	2
 149              		.set	.LANCHOR0,. + 0
 150              		.type	systicks, %object
 151              		.size	systicks, 4
 152              	systicks:
 153 0000 00000000 		.space	4
 154              		.type	init.6823, %object
 155              		.size	init.6823, 1
 156              	init.6823:
 157 0004 00       		.space	1
 158              		.text
 159              	.Letext0:
 160              		.file 3 "c:\\program files (x86)\\cypress\\psoc creator\\4.2\\psoc creator\\import\\gnu\\arm\\5.4.
 161              		.file 4 "c:\\program files (x86)\\cypress\\psoc creator\\4.2\\psoc creator\\import\\gnu\\arm\\5.4.
 162              		.file 5 "Generated_Source\\PSoC5/core_cm3_psoc5.h"
 163              		.file 6 "ZumoLibrary\\Ultra.h"
 164              		.file 7 "ZumoLibrary\\Reflectance.h"
 165              		.file 8 "Generated_Source\\PSoC5/CyLib.h"