ARM GAS  C:\Users\manuelfu\AppData\Local\Temp\ccgNyvzu.s 			page 1


   1              		.syntax unified
   2              		.cpu cortex-m3
   3              		.fpu softvfp
   4              		.eabi_attribute 20, 1
   5              		.eabi_attribute 21, 1
   6              		.eabi_attribute 23, 3
   7              		.eabi_attribute 24, 1
   8              		.eabi_attribute 25, 1
   9              		.eabi_attribute 26, 1
  10              		.eabi_attribute 30, 1
  11              		.eabi_attribute 34, 1
  12              		.eabi_attribute 18, 4
  13              		.thumb
  14              		.syntax unified
  15              		.file	"Ultra.c"
  16              		.text
  17              	.Ltext0:
  18              		.cfi_sections	.debug_frame
  19              		.section	.text.ultra_isr_handler,"ax",%progbits
  20              		.align	2
  21              		.global	ultra_isr_handler
  22              		.thumb
  23              		.thumb_func
  24              		.type	ultra_isr_handler, %function
  25              	ultra_isr_handler:
  26              	.LFB64:
  27              		.file 1 "ZumoLibrary\\Ultra.c"
   1:ZumoLibrary/Ultra.c **** /**
   2:ZumoLibrary/Ultra.c ****  * @file    Ultra.c
   3:ZumoLibrary/Ultra.c ****  * @brief   Basic methods for operating ultrasonic sensor. For more details, please refer to Ultra.
   4:ZumoLibrary/Ultra.c ****  * @details part number: HC-SR04
   5:ZumoLibrary/Ultra.c **** */
   6:ZumoLibrary/Ultra.c **** 
   7:ZumoLibrary/Ultra.c **** #include "project.h"
   8:ZumoLibrary/Ultra.c **** #include <stdint.h>
   9:ZumoLibrary/Ultra.c **** #include <stdbool.h>
  10:ZumoLibrary/Ultra.c **** 
  11:ZumoLibrary/Ultra.c **** #include "Ultra.h"
  12:ZumoLibrary/Ultra.c **** #include "Systick.h"
  13:ZumoLibrary/Ultra.c **** 
  14:ZumoLibrary/Ultra.c **** static volatile bool ultra_init = false;
  15:ZumoLibrary/Ultra.c **** static volatile int distance;
  16:ZumoLibrary/Ultra.c **** 
  17:ZumoLibrary/Ultra.c **** 
  18:ZumoLibrary/Ultra.c **** /**
  19:ZumoLibrary/Ultra.c **** * @brief    Ultrasonic handler - called from systick ISR
  20:ZumoLibrary/Ultra.c **** * @details  Counts ticks to next activation
  21:ZumoLibrary/Ultra.c **** */
  22:ZumoLibrary/Ultra.c **** void ultrasonic_handler(void)
  23:ZumoLibrary/Ultra.c **** {
  24:ZumoLibrary/Ultra.c ****     if(!ultra_init) return;
  25:ZumoLibrary/Ultra.c **** 
  26:ZumoLibrary/Ultra.c ****     static int cnt;
  27:ZumoLibrary/Ultra.c **** 
  28:ZumoLibrary/Ultra.c ****     cnt++;
  29:ZumoLibrary/Ultra.c ****   
  30:ZumoLibrary/Ultra.c ****     if(cnt == 1) {
ARM GAS  C:\Users\manuelfu\AppData\Local\Temp\ccgNyvzu.s 			page 2


  31:ZumoLibrary/Ultra.c ****         Trig_Write(0); // Trigger Low
  32:ZumoLibrary/Ultra.c ****     }
  33:ZumoLibrary/Ultra.c ****     
  34:ZumoLibrary/Ultra.c ****     // try to trigger every 25 ms
  35:ZumoLibrary/Ultra.c ****     if(cnt >= 25) {
  36:ZumoLibrary/Ultra.c ****         cnt = 0;  
  37:ZumoLibrary/Ultra.c ****         // Trigger High only if echo pulse is not active
  38:ZumoLibrary/Ultra.c ****         if(Echo_Read() == 0) Trig_Write(1);
  39:ZumoLibrary/Ultra.c ****     }
  40:ZumoLibrary/Ultra.c **** }
  41:ZumoLibrary/Ultra.c **** 
  42:ZumoLibrary/Ultra.c **** 
  43:ZumoLibrary/Ultra.c **** /**
  44:ZumoLibrary/Ultra.c **** * @brief    Ultra Sonic Sensor Interrupt Handler
  45:ZumoLibrary/Ultra.c **** * @details  Measuring reflecting time to decide distance between Zumobot and obstacle
  46:ZumoLibrary/Ultra.c **** */
  47:ZumoLibrary/Ultra.c **** CY_ISR(ultra_isr_handler)
  48:ZumoLibrary/Ultra.c **** {
  28              		.loc 1 48 0
  29              		.cfi_startproc
  30              		@ args = 0, pretend = 0, frame = 0
  31              		@ frame_needed = 0, uses_anonymous_args = 0
  32 0000 70B5     		push	{r4, r5, r6, lr}
  33              		.cfi_def_cfa_offset 16
  34              		.cfi_offset 4, -16
  35              		.cfi_offset 5, -12
  36              		.cfi_offset 6, -8
  37              		.cfi_offset 14, -4
  38              	.L7:
  49:ZumoLibrary/Ultra.c ****     static uint16_t prev;
  50:ZumoLibrary/Ultra.c ****     static uint32_t ovf;
  51:ZumoLibrary/Ultra.c ****     static int echo;
  52:ZumoLibrary/Ultra.c ****     uint16_t now;
  53:ZumoLibrary/Ultra.c ****     uint32_t status;
  54:ZumoLibrary/Ultra.c ****     do {
  55:ZumoLibrary/Ultra.c ****         status = Timer_ReadStatusRegister();
  39              		.loc 1 55 0
  40 0002 FFF7FEFF 		bl	Timer_ReadStatusRegister
  41              	.LVL0:
  42 0006 0446     		mov	r4, r0
  43              	.LVL1:
  44 0008 00F00803 		and	r3, r0, #8
  56:ZumoLibrary/Ultra.c ****         if(status & Timer_STATUS_FIFONEMP) {
  45              		.loc 1 56 0
  46 000c 03F0FF05 		and	r5, r3, #255
  47 0010 0BB3     		cbz	r3, .L2
  57:ZumoLibrary/Ultra.c ****             now = Timer_ReadCapture();
  48              		.loc 1 57 0
  49 0012 FFF7FEFF 		bl	Timer_ReadCapture
  50              	.LVL2:
  51 0016 0646     		mov	r6, r0
  52              	.LVL3:
  58:ZumoLibrary/Ultra.c ****             if(Echo_Read() == 0) {
  53              		.loc 1 58 0
  54 0018 FFF7FEFF 		bl	Echo_Read
  55              	.LVL4:
  56 001c A0B9     		cbnz	r0, .L3
ARM GAS  C:\Users\manuelfu\AppData\Local\Temp\ccgNyvzu.s 			page 3


  57              	.LBB2:
  59:ZumoLibrary/Ultra.c ****                 uint16_t time = prev - now;
  58              		.loc 1 59 0
  59 001e 134A     		ldr	r2, .L9
  60 0020 1388     		ldrh	r3, [r2]
  61 0022 9B1B     		subs	r3, r3, r6
  62 0024 9BB2     		uxth	r3, r3
  63              	.LVL5:
  60:ZumoLibrary/Ultra.c ****                 if(echo == 1 && ovf <= 1) {
  64              		.loc 1 60 0
  65 0026 5268     		ldr	r2, [r2, #4]
  66 0028 012A     		cmp	r2, #1
  67 002a 09D1     		bne	.L4
  68              		.loc 1 60 0 is_stmt 0 discriminator 1
  69 002c 0F4A     		ldr	r2, .L9
  70 002e 9268     		ldr	r2, [r2, #8]
  71 0030 012A     		cmp	r2, #1
  72 0032 05D8     		bhi	.L4
  61:ZumoLibrary/Ultra.c ****                     distance = time / 58;
  73              		.loc 1 61 0 is_stmt 1
  74 0034 0E4A     		ldr	r2, .L9+4
  75 0036 A2FB0323 		umull	r2, r3, r2, r3
  76              	.LVL6:
  77 003a 5B09     		lsrs	r3, r3, #5
  78 003c 0B4A     		ldr	r2, .L9
  79 003e D360     		str	r3, [r2, #12]
  80              	.L4:
  62:ZumoLibrary/Ultra.c ****                 }
  63:ZumoLibrary/Ultra.c ****                 echo = 0;
  81              		.loc 1 63 0
  82 0040 0022     		movs	r2, #0
  83 0042 0A4B     		ldr	r3, .L9
  84 0044 5A60     		str	r2, [r3, #4]
  85              	.LBE2:
  86 0046 02E0     		b	.L5
  87              	.LVL7:
  88              	.L3:
  64:ZumoLibrary/Ultra.c **** #if 0                
  65:ZumoLibrary/Ultra.c ****                 // for visual debugging of overly long pulse
  66:ZumoLibrary/Ultra.c ****                 if(ovf > 1) {
  67:ZumoLibrary/Ultra.c ****                     BatteryLed_Write(!BatteryLed_Read());
  68:ZumoLibrary/Ultra.c ****                 }
  69:ZumoLibrary/Ultra.c **** #endif                
  70:ZumoLibrary/Ultra.c ****             }
  71:ZumoLibrary/Ultra.c ****             else {
  72:ZumoLibrary/Ultra.c ****                 echo = 1;
  89              		.loc 1 72 0
  90 0048 0122     		movs	r2, #1
  91 004a 084B     		ldr	r3, .L9
  92 004c 5A60     		str	r2, [r3, #4]
  93              	.L5:
  73:ZumoLibrary/Ultra.c ****             }
  74:ZumoLibrary/Ultra.c ****             prev = now;
  94              		.loc 1 74 0
  95 004e 074B     		ldr	r3, .L9
  96 0050 1E80     		strh	r6, [r3]	@ movhi
  75:ZumoLibrary/Ultra.c ****             ovf = 0;
ARM GAS  C:\Users\manuelfu\AppData\Local\Temp\ccgNyvzu.s 			page 4


  97              		.loc 1 75 0
  98 0052 0022     		movs	r2, #0
  99 0054 9A60     		str	r2, [r3, #8]
 100              	.LVL8:
 101              	.L2:
  76:ZumoLibrary/Ultra.c ****         }
  77:ZumoLibrary/Ultra.c ****         if(status & Timer_STATUS_TC) {
 102              		.loc 1 77 0
 103 0056 14F0010F 		tst	r4, #1
 104 005a 03D0     		beq	.L6
  78:ZumoLibrary/Ultra.c ****             ++ovf; // used to count overly long pulses
 105              		.loc 1 78 0
 106 005c 034A     		ldr	r2, .L9
 107 005e 9368     		ldr	r3, [r2, #8]
 108 0060 0133     		adds	r3, r3, #1
 109 0062 9360     		str	r3, [r2, #8]
 110              	.L6:
  79:ZumoLibrary/Ultra.c ****         }
  80:ZumoLibrary/Ultra.c ****     } while(status & Timer_STATUS_FIFONEMP);
 111              		.loc 1 80 0
 112 0064 002D     		cmp	r5, #0
 113 0066 CCD1     		bne	.L7
  81:ZumoLibrary/Ultra.c **** }
 114              		.loc 1 81 0
 115 0068 70BD     		pop	{r4, r5, r6, pc}
 116              	.L10:
 117 006a 00BF     		.align	2
 118              	.L9:
 119 006c 00000000 		.word	.LANCHOR0
 120 0070 09CB3D8D 		.word	-1925330167
 121              		.cfi_endproc
 122              	.LFE64:
 123              		.size	ultra_isr_handler, .-ultra_isr_handler
 124              		.section	.text.ultrasonic_handler,"ax",%progbits
 125              		.align	2
 126              		.global	ultrasonic_handler
 127              		.thumb
 128              		.thumb_func
 129              		.type	ultrasonic_handler, %function
 130              	ultrasonic_handler:
 131              	.LFB63:
  23:ZumoLibrary/Ultra.c ****     if(!ultra_init) return;
 132              		.loc 1 23 0
 133              		.cfi_startproc
 134              		@ args = 0, pretend = 0, frame = 0
 135              		@ frame_needed = 0, uses_anonymous_args = 0
 136 0000 08B5     		push	{r3, lr}
 137              		.cfi_def_cfa_offset 8
 138              		.cfi_offset 3, -8
 139              		.cfi_offset 14, -4
  24:ZumoLibrary/Ultra.c **** 
 140              		.loc 1 24 0
 141 0002 0E4B     		ldr	r3, .L15
 142 0004 1B7C     		ldrb	r3, [r3, #16]	@ zero_extendqisi2
 143 0006 13F0FF0F 		tst	r3, #255
 144 000a 15D0     		beq	.L11
  28:ZumoLibrary/Ultra.c ****   
ARM GAS  C:\Users\manuelfu\AppData\Local\Temp\ccgNyvzu.s 			page 5


 145              		.loc 1 28 0
 146 000c 0B4A     		ldr	r2, .L15
 147 000e 5369     		ldr	r3, [r2, #20]
 148 0010 0133     		adds	r3, r3, #1
 149 0012 5361     		str	r3, [r2, #20]
  30:ZumoLibrary/Ultra.c ****         Trig_Write(0); // Trigger Low
 150              		.loc 1 30 0
 151 0014 012B     		cmp	r3, #1
 152 0016 02D1     		bne	.L13
  31:ZumoLibrary/Ultra.c ****     }
 153              		.loc 1 31 0
 154 0018 0020     		movs	r0, #0
 155 001a FFF7FEFF 		bl	Trig_Write
 156              	.LVL9:
 157              	.L13:
  35:ZumoLibrary/Ultra.c ****         cnt = 0;  
 158              		.loc 1 35 0
 159 001e 074B     		ldr	r3, .L15
 160 0020 5B69     		ldr	r3, [r3, #20]
 161 0022 182B     		cmp	r3, #24
 162 0024 08DD     		ble	.L11
  36:ZumoLibrary/Ultra.c ****         // Trigger High only if echo pulse is not active
 163              		.loc 1 36 0
 164 0026 0022     		movs	r2, #0
 165 0028 044B     		ldr	r3, .L15
 166 002a 5A61     		str	r2, [r3, #20]
  38:ZumoLibrary/Ultra.c ****     }
 167              		.loc 1 38 0
 168 002c FFF7FEFF 		bl	Echo_Read
 169              	.LVL10:
 170 0030 10B9     		cbnz	r0, .L11
  38:ZumoLibrary/Ultra.c ****     }
 171              		.loc 1 38 0 is_stmt 0 discriminator 1
 172 0032 0120     		movs	r0, #1
 173 0034 FFF7FEFF 		bl	Trig_Write
 174              	.LVL11:
 175              	.L11:
 176 0038 08BD     		pop	{r3, pc}
 177              	.L16:
 178 003a 00BF     		.align	2
 179              	.L15:
 180 003c 00000000 		.word	.LANCHOR0
 181              		.cfi_endproc
 182              	.LFE63:
 183              		.size	ultrasonic_handler, .-ultrasonic_handler
 184              		.section	.text.Ultra_Start,"ax",%progbits
 185              		.align	2
 186              		.global	Ultra_Start
 187              		.thumb
 188              		.thumb_func
 189              		.type	Ultra_Start, %function
 190              	Ultra_Start:
 191              	.LFB65:
  82:ZumoLibrary/Ultra.c **** 
  83:ZumoLibrary/Ultra.c **** 
  84:ZumoLibrary/Ultra.c **** /**
  85:ZumoLibrary/Ultra.c **** * @brief    Starting Ultra Sonic Sensor
ARM GAS  C:\Users\manuelfu\AppData\Local\Temp\ccgNyvzu.s 			page 6


  86:ZumoLibrary/Ultra.c **** * @details  
  87:ZumoLibrary/Ultra.c **** */
  88:ZumoLibrary/Ultra.c **** void Ultra_Start()
  89:ZumoLibrary/Ultra.c **** {
 192              		.loc 1 89 0 is_stmt 1
 193              		.cfi_startproc
 194              		@ args = 0, pretend = 0, frame = 0
 195              		@ frame_needed = 0, uses_anonymous_args = 0
 196 0000 08B5     		push	{r3, lr}
 197              		.cfi_def_cfa_offset 8
 198              		.cfi_offset 3, -8
 199              		.cfi_offset 14, -4
  90:ZumoLibrary/Ultra.c ****     ultra_isr_StartEx(ultra_isr_handler);               // Start ultra sonic interrupt
 200              		.loc 1 90 0
 201 0002 0548     		ldr	r0, .L19
 202 0004 FFF7FEFF 		bl	ultra_isr_StartEx
 203              	.LVL12:
  91:ZumoLibrary/Ultra.c ****     Timer_Start();                                      // Start Timer
 204              		.loc 1 91 0
 205 0008 FFF7FEFF 		bl	Timer_Start
 206              	.LVL13:
  92:ZumoLibrary/Ultra.c ****     ultra_init = true;
 207              		.loc 1 92 0
 208 000c 0122     		movs	r2, #1
 209 000e 034B     		ldr	r3, .L19+4
 210 0010 1A74     		strb	r2, [r3, #16]
  93:ZumoLibrary/Ultra.c ****     Systick_Start();
 211              		.loc 1 93 0
 212 0012 FFF7FEFF 		bl	Systick_Start
 213              	.LVL14:
 214 0016 08BD     		pop	{r3, pc}
 215              	.L20:
 216              		.align	2
 217              	.L19:
 218 0018 00000000 		.word	ultra_isr_handler
 219 001c 00000000 		.word	.LANCHOR0
 220              		.cfi_endproc
 221              	.LFE65:
 222              		.size	Ultra_Start, .-Ultra_Start
 223              		.section	.text.Ultra_GetDistance,"ax",%progbits
 224              		.align	2
 225              		.global	Ultra_GetDistance
 226              		.thumb
 227              		.thumb_func
 228              		.type	Ultra_GetDistance, %function
 229              	Ultra_GetDistance:
 230              	.LFB66:
  94:ZumoLibrary/Ultra.c **** }
  95:ZumoLibrary/Ultra.c **** 
  96:ZumoLibrary/Ultra.c **** int Ultra_GetDistance(void)
  97:ZumoLibrary/Ultra.c **** {
 231              		.loc 1 97 0
 232              		.cfi_startproc
 233              		@ args = 0, pretend = 0, frame = 0
 234              		@ frame_needed = 0, uses_anonymous_args = 0
 235              		@ link register save eliminated.
  98:ZumoLibrary/Ultra.c ****     return distance;       
ARM GAS  C:\Users\manuelfu\AppData\Local\Temp\ccgNyvzu.s 			page 7


 236              		.loc 1 98 0
 237 0000 014B     		ldr	r3, .L22
 238 0002 D868     		ldr	r0, [r3, #12]
  99:ZumoLibrary/Ultra.c **** }    
 239              		.loc 1 99 0
 240 0004 7047     		bx	lr
 241              	.L23:
 242 0006 00BF     		.align	2
 243              	.L22:
 244 0008 00000000 		.word	.LANCHOR0
 245              		.cfi_endproc
 246              	.LFE66:
 247              		.size	Ultra_GetDistance, .-Ultra_GetDistance
 248              		.bss
 249              		.align	2
 250              		.set	.LANCHOR0,. + 0
 251              		.type	prev.6805, %object
 252              		.size	prev.6805, 2
 253              	prev.6805:
 254 0000 0000     		.space	2
 255 0002 0000     		.space	2
 256              		.type	echo.6807, %object
 257              		.size	echo.6807, 4
 258              	echo.6807:
 259 0004 00000000 		.space	4
 260              		.type	ovf.6806, %object
 261              		.size	ovf.6806, 4
 262              	ovf.6806:
 263 0008 00000000 		.space	4
 264              		.type	distance, %object
 265              		.size	distance, 4
 266              	distance:
 267 000c 00000000 		.space	4
 268              		.type	ultra_init, %object
 269              		.size	ultra_init, 1
 270              	ultra_init:
 271 0010 00       		.space	1
 272 0011 000000   		.space	3
 273              		.type	cnt.6801, %object
 274              		.size	cnt.6801, 4
 275              	cnt.6801:
 276 0014 00000000 		.space	4
 277              		.text
 278              	.Letext0:
 279              		.file 2 "c:\\program files (x86)\\cypress\\psoc creator\\4.2\\psoc creator\\import\\gnu\\arm\\5.4.
 280              		.file 3 "c:\\program files (x86)\\cypress\\psoc creator\\4.2\\psoc creator\\import\\gnu\\arm\\5.4.
 281              		.file 4 "Generated_Source\\PSoC5/cytypes.h"
 282              		.file 5 "Generated_Source\\PSoC5/Timer.h"
 283              		.file 6 "Generated_Source\\PSoC5/Echo.h"
 284              		.file 7 "Generated_Source\\PSoC5/Trig.h"
 285              		.file 8 "Generated_Source\\PSoC5/ultra_isr.h"
 286              		.file 9 "ZumoLibrary\\Systick.h"
 287              		.file 10 "Generated_Source\\PSoC5/core_cm3.h"